###############################################################################
#                                                                             #
# IAR ELF Linker V6.10.1.52143/W32 for ARM              02/Aug/2023  09:07:00 #
# Copyright 2007-2010 IAR Systems AB.                                         #
#                                                                             #
#    Output file  =  E:\板卡出厂程序\双can板卡出厂程序\exp_car_ctrl_slaver_v1 #
#                    .4.0.1\Project\EWARMv5\STM3210C-EVAL\Exe\STM3210C-EVAL.o #
#                    ut                                                       #
#    Map file     =  E:\板卡出厂程序\双can板卡出厂程序\exp_car_ctrl_slaver_v1 #
#                    .4.0.1\Project\EWARMv5\STM3210C-EVAL\List\STM3210C-EVAL. #
#                    map                                                      #
#    Command line =  E:\板卡出厂程序\双can板卡出厂程序\exp_car_ctrl_slaver_v1 #
#                    .4.0.1\Project\EWARMv5\STM3210C-EVAL\Obj\TCPclient.o     #
#                    E:\板卡出厂程序\双can板卡出厂程序\exp_car_ctrl_slaver_v1 #
#                    .4.0.1\Project\EWARMv5\STM3210C-EVAL\Obj\api_lib.o       #
#                    E:\板卡出厂程序\双can板卡出厂程序\exp_car_ctrl_slaver_v1 #
#                    .4.0.1\Project\EWARMv5\STM3210C-EVAL\Obj\api_msg.o       #
#                    E:\板卡出厂程序\双can板卡出厂程序\exp_car_ctrl_slaver_v1 #
#                    .4.0.1\Project\EWARMv5\STM3210C-EVAL\Obj\autoip.o        #
#                    E:\板卡出厂程序\双can板卡出厂程序\exp_car_ctrl_slaver_v1 #
#                    .4.0.1\Project\EWARMv5\STM3210C-EVAL\Obj\can1_bus.o      #
#                    E:\板卡出厂程序\双can板卡出厂程序\exp_car_ctrl_slaver_v1 #
#                    .4.0.1\Project\EWARMv5\STM3210C-EVAL\Obj\can2_bus.o      #
#                    E:\板卡出厂程序\双can板卡出厂程序\exp_car_ctrl_slaver_v1 #
#                    .4.0.1\Project\EWARMv5\STM3210C-EVAL\Obj\core_cm3.o      #
#                    E:\板卡出厂程序\双can板卡出厂程序\exp_car_ctrl_slaver_v1 #
#                    .4.0.1\Project\EWARMv5\STM3210C-EVAL\Obj\data.o          #
#                    E:\板卡出厂程序\双can板卡出厂程序\exp_car_ctrl_slaver_v1 #
#                    .4.0.1\Project\EWARMv5\STM3210C-EVAL\Obj\dhcp.o          #
#                    E:\板卡出厂程序\双can板卡出厂程序\exp_car_ctrl_slaver_v1 #
#                    .4.0.1\Project\EWARMv5\STM3210C-EVAL\Obj\err.o           #
#                    E:\板卡出厂程序\双can板卡出厂程序\exp_car_ctrl_slaver_v1 #
#                    .4.0.1\Project\EWARMv5\STM3210C-EVAL\Obj\etharp.o        #
#                    E:\板卡出厂程序\双can板卡出厂程序\exp_car_ctrl_slaver_v1 #
#                    .4.0.1\Project\EWARMv5\STM3210C-EVAL\Obj\ethernetif.o    #
#                    E:\板卡出厂程序\双can板卡出厂程序\exp_car_ctrl_slaver_v1 #
#                    .4.0.1\Project\EWARMv5\STM3210C-EVAL\Obj\fun.o           #
#                    E:\板卡出厂程序\双can板卡出厂程序\exp_car_ctrl_slaver_v1 #
#                    .4.0.1\Project\EWARMv5\STM3210C-EVAL\Obj\icmp.o          #
#                    E:\板卡出厂程序\双can板卡出厂程序\exp_car_ctrl_slaver_v1 #
#                    .4.0.1\Project\EWARMv5\STM3210C-EVAL\Obj\igmp.o          #
#                    E:\板卡出厂程序\双can板卡出厂程序\exp_car_ctrl_slaver_v1 #
#                    .4.0.1\Project\EWARMv5\STM3210C-EVAL\Obj\inet.o          #
#                    E:\板卡出厂程序\双can板卡出厂程序\exp_car_ctrl_slaver_v1 #
#                    .4.0.1\Project\EWARMv5\STM3210C-EVAL\Obj\inet_chksum.o   #
#                    E:\板卡出厂程序\双can板卡出厂程序\exp_car_ctrl_slaver_v1 #
#                    .4.0.1\Project\EWARMv5\STM3210C-EVAL\Obj\init.o          #
#                    E:\板卡出厂程序\双can板卡出厂程序\exp_car_ctrl_slaver_v1 #
#                    .4.0.1\Project\EWARMv5\STM3210C-EVAL\Obj\ip.o            #
#                    E:\板卡出厂程序\双can板卡出厂程序\exp_car_ctrl_slaver_v1 #
#                    .4.0.1\Project\EWARMv5\STM3210C-EVAL\Obj\ip_addr.o       #
#                    E:\板卡出厂程序\双can板卡出厂程序\exp_car_ctrl_slaver_v1 #
#                    .4.0.1\Project\EWARMv5\STM3210C-EVAL\Obj\ip_frag.o       #
#                    E:\板卡出厂程序\双can板卡出厂程序\exp_car_ctrl_slaver_v1 #
#                    .4.0.1\Project\EWARMv5\STM3210C-EVAL\Obj\list.o          #
#                    E:\板卡出厂程序\双can板卡出厂程序\exp_car_ctrl_slaver_v1 #
#                    .4.0.1\Project\EWARMv5\STM3210C-EVAL\Obj\main.o          #
#                    E:\板卡出厂程序\双can板卡出厂程序\exp_car_ctrl_slaver_v1 #
#                    .4.0.1\Project\EWARMv5\STM3210C-EVAL\Obj\mem.o           #
#                    E:\板卡出厂程序\双can板卡出厂程序\exp_car_ctrl_slaver_v1 #
#                    .4.0.1\Project\EWARMv5\STM3210C-EVAL\Obj\memp.o          #
#                    E:\板卡出厂程序\双can板卡出厂程序\exp_car_ctrl_slaver_v1 #
#                    .4.0.1\Project\EWARMv5\STM3210C-EVAL\Obj\misc.o          #
#                    E:\板卡出厂程序\双can板卡出厂程序\exp_car_ctrl_slaver_v1 #
#                    .4.0.1\Project\EWARMv5\STM3210C-EVAL\Obj\netbuf.o        #
#                    E:\板卡出厂程序\双can板卡出厂程序\exp_car_ctrl_slaver_v1 #
#                    .4.0.1\Project\EWARMv5\STM3210C-EVAL\Obj\netconf.o       #
#                    E:\板卡出厂程序\双can板卡出厂程序\exp_car_ctrl_slaver_v1 #
#                    .4.0.1\Project\EWARMv5\STM3210C-EVAL\Obj\netdb.o         #
#                    E:\板卡出厂程序\双can板卡出厂程序\exp_car_ctrl_slaver_v1 #
#                    .4.0.1\Project\EWARMv5\STM3210C-EVAL\Obj\netif.o         #
#                    E:\板卡出厂程序\双can板卡出厂程序\exp_car_ctrl_slaver_v1 #
#                    .4.0.1\Project\EWARMv5\STM3210C-EVAL\Obj\netifapi.o      #
#                    E:\板卡出厂程序\双can板卡出厂程序\exp_car_ctrl_slaver_v1 #
#                    .4.0.1\Project\EWARMv5\STM3210C-EVAL\Obj\pbuf.o          #
#                    E:\板卡出厂程序\双can板卡出厂程序\exp_car_ctrl_slaver_v1 #
#                    .4.0.1\Project\EWARMv5\STM3210C-EVAL\Obj\photo.o         #
#                    E:\板卡出厂程序\双can板卡出厂程序\exp_car_ctrl_slaver_v1 #
#                    .4.0.1\Project\EWARMv5\STM3210C-EVAL\Obj\position.o      #
#                    E:\板卡出厂程序\双can板卡出厂程序\exp_car_ctrl_slaver_v1 #
#                    .4.0.1\Project\EWARMv5\STM3210C-EVAL\Obj\raw.o           #
#                    E:\板卡出厂程序\双can板卡出厂程序\exp_car_ctrl_slaver_v1 #
#                    .4.0.1\Project\EWARMv5\STM3210C-EVAL\Obj\startup_stm32f1 #
#                    0x_cl.o E:\板卡出厂程序\双can板卡出厂程序\exp_car_ctrl_s #
#                    laver_v1.4.0.1\Project\EWARMv5\STM3210C-EVAL\Obj\stats.o #
#                     E:\板卡出厂程序\双can板卡出厂程序\exp_car_ctrl_slaver_v #
#                    1.4.0.1\Project\EWARMv5\STM3210C-EVAL\Obj\stm32_eth.o    #
#                    E:\板卡出厂程序\双can板卡出厂程序\exp_car_ctrl_slaver_v1 #
#                    .4.0.1\Project\EWARMv5\STM3210C-EVAL\Obj\stm32f107.o     #
#                    E:\板卡出厂程序\双can板卡出厂程序\exp_car_ctrl_slaver_v1 #
#                    .4.0.1\Project\EWARMv5\STM3210C-EVAL\Obj\stm32f10x_adc.o #
#                     E:\板卡出厂程序\双can板卡出厂程序\exp_car_ctrl_slaver_v #
#                    1.4.0.1\Project\EWARMv5\STM3210C-EVAL\Obj\stm32f10x_bkp. #
#                    o E:\板卡出厂程序\双can板卡出厂程序\exp_car_ctrl_slaver_ #
#                    v1.4.0.1\Project\EWARMv5\STM3210C-EVAL\Obj\stm32f10x_can #
#                    .o E:\板卡出厂程序\双can板卡出厂程序\exp_car_ctrl_slaver #
#                    _v1.4.0.1\Project\EWARMv5\STM3210C-EVAL\Obj\stm32f10x_dm #
#                    a.o E:\板卡出厂程序\双can板卡出厂程序\exp_car_ctrl_slave #
#                    r_v1.4.0.1\Project\EWARMv5\STM3210C-EVAL\Obj\stm32f10x_e #
#                    xti.o E:\板卡出厂程序\双can板卡出厂程序\exp_car_ctrl_sla #
#                    ver_v1.4.0.1\Project\EWARMv5\STM3210C-EVAL\Obj\stm32f10x #
#                    _flash.o E:\板卡出厂程序\双can板卡出厂程序\exp_car_ctrl_ #
#                    slaver_v1.4.0.1\Project\EWARMv5\STM3210C-EVAL\Obj\stm32f #
#                    10x_gpio.o E:\板卡出厂程序\双can板卡出厂程序\exp_car_ctr #
#                    l_slaver_v1.4.0.1\Project\EWARMv5\STM3210C-EVAL\Obj\stm3 #
#                    2f10x_i2c.o E:\板卡出厂程序\双can板卡出厂程序\exp_car_ct #
#                    rl_slaver_v1.4.0.1\Project\EWARMv5\STM3210C-EVAL\Obj\stm #
#                    32f10x_it.o E:\板卡出厂程序\双can板卡出厂程序\exp_car_ct #
#                    rl_slaver_v1.4.0.1\Project\EWARMv5\STM3210C-EVAL\Obj\stm #
#                    32f10x_pwr.o E:\板卡出厂程序\双can板卡出厂程序\exp_car_c #
#                    trl_slaver_v1.4.0.1\Project\EWARMv5\STM3210C-EVAL\Obj\st #
#                    m32f10x_rcc.o E:\板卡出厂程序\双can板卡出厂程序\exp_car_ #
#                    ctrl_slaver_v1.4.0.1\Project\EWARMv5\STM3210C-EVAL\Obj\s #
#                    tm32f10x_rtc.o E:\板卡出厂程序\双can板卡出厂程序\exp_car #
#                    _ctrl_slaver_v1.4.0.1\Project\EWARMv5\STM3210C-EVAL\Obj\ #
#                    stm32f10x_spi.o E:\板卡出厂程序\双can板卡出厂程序\exp_ca #
#                    r_ctrl_slaver_v1.4.0.1\Project\EWARMv5\STM3210C-EVAL\Obj #
#                    \stm32f10x_tim.o E:\板卡出厂程序\双can板卡出厂程序\exp_c #
#                    ar_ctrl_slaver_v1.4.0.1\Project\EWARMv5\STM3210C-EVAL\Ob #
#                    j\stm32f10x_usart.o E:\板卡出厂程序\双can板卡出厂程序\ex #
#                    p_car_ctrl_slaver_v1.4.0.1\Project\EWARMv5\STM3210C-EVAL #
#                    \Obj\sys.o E:\板卡出厂程序\双can板卡出厂程序\exp_car_ctr #
#                    l_slaver_v1.4.0.1\Project\EWARMv5\STM3210C-EVAL\Obj\syst #
#                    em_stm32f10x.o E:\板卡出厂程序\双can板卡出厂程序\exp_car #
#                    _ctrl_slaver_v1.4.0.1\Project\EWARMv5\STM3210C-EVAL\Obj\ #
#                    tcp.o E:\板卡出厂程序\双can板卡出厂程序\exp_car_ctrl_sla #
#                    ver_v1.4.0.1\Project\EWARMv5\STM3210C-EVAL\Obj\tcp_in.o  #
#                    E:\板卡出厂程序\双can板卡出厂程序\exp_car_ctrl_slaver_v1 #
#                    .4.0.1\Project\EWARMv5\STM3210C-EVAL\Obj\tcp_out.o       #
#                    E:\板卡出厂程序\双can板卡出厂程序\exp_car_ctrl_slaver_v1 #
#                    .4.0.1\Project\EWARMv5\STM3210C-EVAL\Obj\tcpip.o         #
#                    E:\板卡出厂程序\双can板卡出厂程序\exp_car_ctrl_slaver_v1 #
#                    .4.0.1\Project\EWARMv5\STM3210C-EVAL\Obj\uart4.o         #
#                    E:\板卡出厂程序\双can板卡出厂程序\exp_car_ctrl_slaver_v1 #
#                    .4.0.1\Project\EWARMv5\STM3210C-EVAL\Obj\udp.o           #
#                    E:\板卡出厂程序\双can板卡出厂程序\exp_car_ctrl_slaver_v1 #
#                    .4.0.1\Project\EWARMv5\STM3210C-EVAL\Obj\usart1.o        #
#                    E:\板卡出厂程序\双can板卡出厂程序\exp_car_ctrl_slaver_v1 #
#                    .4.0.1\Project\EWARMv5\STM3210C-EVAL\Obj\usart2.o -o     #
#                    E:\板卡出厂程序\双can板卡出厂程序\exp_car_ctrl_slaver_v1 #
#                    .4.0.1\Project\EWARMv5\STM3210C-EVAL\Exe\STM3210C-EVAL.o #
#                    ut --map E:\板卡出厂程序\双can板卡出厂程序\exp_car_ctrl_ #
#                    slaver_v1.4.0.1\Project\EWARMv5\STM3210C-EVAL\List\STM32 #
#                    10C-EVAL.map --config E:\板卡出厂程序\双can板卡出厂程序\ #
#                    exp_car_ctrl_slaver_v1.4.0.1\Project\EWARMv5\STM32F10x_F #
#                    LASH.icf --semihosting --entry __iar_program_start       #
#                                                                             #
#                                                                             #
###############################################################################

*******************************************************************************
*** RUNTIME MODEL ATTRIBUTES
***

CppFlavor       = *
__SystemLibrary = DLib


*******************************************************************************
*** PLACEMENT SUMMARY
***

"A1":  place at 0x08000000 { ro section .intvec };
"P1":  place in [from 0x08000000 to 0x0803ffff] { ro };
"P2":  place in [from 0x20000000 to 0x2000ffff] { rw, block CSTACK, block HEAP };

  Section             Kind        Address    Size  Object
  -------             ----        -------    ----  ------
"A1":                                       0x150
  .intvec             ro code  0x08000000   0x150  startup_stm32f10x_cl.o [1]
                             - 0x08000150   0x150

"P1":                                      0xdee8
  .text               ro code  0x08000150  0x135c  tcp_in.o [1]
  .text               ro code  0x080014ac    0x36  inet.o [1]
  .text               ro code  0x080014e2   0x576  pbuf.o [1]
  .text               ro code  0x08001a58    0x54  ip_addr.o [1]
  .text               ro code  0x08001aac   0x4c0  tcp.o [1]
  .text               ro code  0x08001f6c    0xe4  memp.o [1]
  .text               ro code  0x08002050   0x96e  tcp_out.o [1]
  .text               ro code  0x080029be    0x2e  copy_init3.o [5]
  .text               ro code  0x080029ec   0x364  mem.o [1]
  .text               ro code  0x08002d50     0xe  tcp_out.o [1]
  .text               ro code  0x08002d5e    0x14  udp.o [1]
  .text               ro code  0x08002d72    0x22  zero_init3.o [5]
  .text               ro code  0x08002d94   0x368  ip.o [1]
  .text               ro code  0x080030fc    0x70  ABImemcpy.o [5]
  .text               ro code  0x0800316c    0x66  ABImemset.o [5]
  .text               ro code  0x080031d2     0xa  xsprout.o [3]
  .text               ro code  0x080031dc   0x140  netif.o [1]
  .text               ro code  0x0800331c   0x5d8  ip_frag.o [1]
  .text               ro code  0x080038f4    0x88  raw.o [1]
  .text               ro code  0x0800397c   0x3ec  udp.o [1]
  .text               ro code  0x08003d68   0x1f8  icmp.o [1]
  .text               ro code  0x08003f60   0xa1c  etharp.o [1]
  .text               ro code  0x0800497c    0xac  inet_chksum.o [1]
  .text               ro code  0x08004a28  0x12ec  dlmalloc.o [3]
  .text               ro code  0x08005d14     0xa  abort.o [3]
  .text               ro code  0x08005d20    0x28  xgetmemchunk.o [3]
  .text               ro code  0x08005d48    0xb4  xsyslock.o [3]
  .text               ro code  0x08005dfc    0x14  exit.o [6]
  .text               ro code  0x08005e10     0x4  xmtx2.o [3]
  .text               ro code  0x08005e14     0x8  xmtx.o [3]
  .text               ro code  0x08005e1c    0x30  iarttio.o [6]
  .text               ro code  0x08005e4c     0x8  XShttio.o [3]
  .text               ro code  0x08005e54  0x1076  xprintffull.o [3]
  .text               ro code  0x08006eca    0x20  xmbtowc.o [3]
  .text               ro code  0x08006eec    0x16  strchr.o [5]
  .text               ro code  0x08006f04    0x58  memchr.o [5]
  .text               ro code  0x08006f5c    0x36  strlen.o [5]
  .text               ro code  0x08006f92     0xa  xmbcurmax.o [3]
  .text               ro code  0x08006f9c    0x1a  xwctomb.o [3]
  .text               ro code  0x08006fb8   0x12e  I64DivMod.o [5]
  .text               ro code  0x080070e8    0x44  xdnorm.o [4]
  .text               ro code  0x0800712c    0x2e  DblCmpLe.o [4]
  .text               ro code  0x0800715c    0x2e  DblCmpGe.o [4]
  .text               ro code  0x0800718c   0x118  xdscale.o [4]
  .text               ro code  0x080072a4    0x56  DblToI32.o [4]
  .text               ro code  0x080072fc    0x2e  I32ToDbl.o [4]
  .text               ro code  0x0800732c   0x17e  DblSub.o [4]
  .text               ro code  0x080074ac   0x1a2  DblMul.o [4]
  .text               ro code  0x08007650   0x246  DblDiv.o [4]
  .text               ro code  0x08007898    0x6c  localeconv.o [3]
  .text               ro code  0x08007904     0xe  div.o [3]
  .text               ro code  0x08007914    0x14  setlocale.o [3]
  .text               ro code  0x08007928    0x5c  xencoding_sb.o [3]
  .text               ro code  0x08007984     0x2  I64DivZer.o [5]
  .text               ro code  0x08007988    0xe6  DblAdd.o [4]
  .text               ro code  0x08007a6e     0x2  xtls.o [3]
  .text               ro code  0x08007a70   0xf90  usart2.o [1]
  .text               ro code  0x08008a00   0x1d8  stm32f10x_gpio.o [1]
  .text               ro code  0x08008bd8   0x1b0  stm32f10x_usart.o [1]
  .text               ro code  0x08008d88   0x200  stm32f10x_dma.o [1]
  .text               ro code  0x08008f88   0x244  data.o [1]
  .text               ro code  0x080091cc   0x1e8  stm32f10x_rcc.o [1]
  .text               ro code  0x080093b4    0x28  list.o [1]
  .text               ro code  0x080093dc   0xb78  stm32f107.o [1]
  .text               ro code  0x08009f54    0xa4  stm32f10x_exti.o [1]
  .text               ro code  0x08009ff8   0x526  stm32f10x_can.o [1]
  .text               ro code  0x0800a520   0x198  system_stm32f10x.o [1]
  .text               ro code  0x0800a6b8   0x70a  stm32_eth.o [1]
  .text               ro code  0x0800adc4    0x98  misc.o [1]
  .text               ro code  0x0800ae5c   0x9d8  usart1.o [1]
  .text               ro code  0x0800b834    0x34  sprintf.o [3]
  .text               ro code  0x0800b868   0x4a4  TCPclient.o [1]
  .text               ro code  0x0800bd0c   0x184  fun.o [1]
  .text               ro code  0x0800be90   0x174  stm32f10x_flash.o [1]
  .text               ro code  0x0800c004   0x9d4  uart4.o [1]
  .text               ro code  0x0800c9d8   0x3fc  main.o [1]
  .text               ro code  0x0800cdd4   0x350  can1_bus.o [1]
  .text               ro code  0x0800d124   0x360  can2_bus.o [1]
  .text               ro code  0x0800d484   0x28c  photo.o [1]
  .text               ro code  0x0800d710    0xb8  netconf.o [1]
  .text               ro code  0x0800d7c8   0x2d0  ethernetif.o [1]
  .text               ro code  0x0800da98   0x348  stm32f10x_it.o [1]
  .text               ro code  0x0800dde0    0x36  stm32f10x_tim.o [1]
  .text               ro code  0x0800de18    0x2c  data_init3.o [5]
  .iar.init_table     const    0x0800de44    0x24  - Linker created -
  .text               ro code  0x0800de68    0x16  cmain.o [5]
  .text               ro code  0x0800de7e     0x4  low_level_init.o [3]
  .text               ro code  0x0800de82     0x8  exit.o [3]
  .text               ro code  0x0800de8c     0xe  cexit.o [5]
  .text               ro code  0x0800de9a     0xc  cstartup_M.o [5]
  .text               ro code  0x0800dea6     0x4  startup_stm32f10x_cl.o [1]
  .text               ro code  0x0800deaa     0x4  startup_stm32f10x_cl.o [1]
  .text               ro code  0x0800deae     0x4  startup_stm32f10x_cl.o [1]
  .text               ro code  0x0800deb2     0x4  startup_stm32f10x_cl.o [1]
  .text               ro code  0x0800deb6     0x4  startup_stm32f10x_cl.o [1]
  .text               ro code  0x0800deba     0x4  startup_stm32f10x_cl.o [1]
  .text               ro code  0x0800debe     0x4  startup_stm32f10x_cl.o [1]
  .text               ro code  0x0800dec2     0x4  startup_stm32f10x_cl.o [1]
  .text               ro code  0x0800dec6     0x4  startup_stm32f10x_cl.o [1]
  .text               ro code  0x0800deca     0x4  startup_stm32f10x_cl.o [1]
  .text               ro code  0x0800dece     0x4  startup_stm32f10x_cl.o [1]
  .text               ro code  0x0800ded2     0x4  startup_stm32f10x_cl.o [1]
  .text               ro code  0x0800ded6     0x4  startup_stm32f10x_cl.o [1]
  .text               ro code  0x0800deda     0x4  startup_stm32f10x_cl.o [1]
  .text               ro code  0x0800dede     0x4  startup_stm32f10x_cl.o [1]
  .text               ro code  0x0800dee2     0x4  startup_stm32f10x_cl.o [1]
  .text               ro code  0x0800dee6     0x4  startup_stm32f10x_cl.o [1]
  .text               ro code  0x0800deea     0x4  startup_stm32f10x_cl.o [1]
  .text               ro code  0x0800deee     0x4  startup_stm32f10x_cl.o [1]
  .text               ro code  0x0800def2     0x4  startup_stm32f10x_cl.o [1]
  .text               ro code  0x0800def6     0x4  startup_stm32f10x_cl.o [1]
  .text               ro code  0x0800defa     0x4  startup_stm32f10x_cl.o [1]
  .text               ro code  0x0800defe     0x4  startup_stm32f10x_cl.o [1]
  .text               ro code  0x0800df02     0x4  startup_stm32f10x_cl.o [1]
  .text               ro code  0x0800df06     0x4  startup_stm32f10x_cl.o [1]
  .text               ro code  0x0800df0a     0x4  startup_stm32f10x_cl.o [1]
  .text               ro code  0x0800df0e     0x4  startup_stm32f10x_cl.o [1]
  .text               ro code  0x0800df12     0x4  startup_stm32f10x_cl.o [1]
  .text               ro code  0x0800df16     0x4  startup_stm32f10x_cl.o [1]
  .text               ro code  0x0800df1a     0x4  startup_stm32f10x_cl.o [1]
  .text               ro code  0x0800df1e     0x4  startup_stm32f10x_cl.o [1]
  .text               ro code  0x0800df22     0x4  startup_stm32f10x_cl.o [1]
  .text               ro code  0x0800df26     0x4  startup_stm32f10x_cl.o [1]
  .text               ro code  0x0800df2a     0x4  startup_stm32f10x_cl.o [1]
  .text               ro code  0x0800df2e     0x4  startup_stm32f10x_cl.o [1]
  .text               ro code  0x0800df32     0x4  startup_stm32f10x_cl.o [1]
  .text               ro code  0x0800df36     0x4  startup_stm32f10x_cl.o [1]
  .text               ro code  0x0800df3a     0x4  startup_stm32f10x_cl.o [1]
  .text               ro code  0x0800df3e     0x4  startup_stm32f10x_cl.o [1]
  .text               ro code  0x0800df42     0x4  startup_stm32f10x_cl.o [1]
  .text               ro code  0x0800df46     0x4  startup_stm32f10x_cl.o [1]
  .text               ro code  0x0800df4a     0x4  startup_stm32f10x_cl.o [1]
  .text               ro code  0x0800df4e     0x4  startup_stm32f10x_cl.o [1]
  .text               ro code  0x0800df52     0x4  startup_stm32f10x_cl.o [1]
  .text               ro code  0x0800df56     0x4  startup_stm32f10x_cl.o [1]
  .text               ro code  0x0800df5a     0x4  startup_stm32f10x_cl.o [1]
  .text               ro code  0x0800df5e     0x4  startup_stm32f10x_cl.o [1]
  .text               ro code  0x0800df62     0x4  startup_stm32f10x_cl.o [1]
  .text               ro code  0x0800df66     0x4  startup_stm32f10x_cl.o [1]
  .text               ro code  0x0800df6a     0x4  startup_stm32f10x_cl.o [1]
  .text               ro code  0x0800df6e     0x4  startup_stm32f10x_cl.o [1]
  .text               ro code  0x0800df72     0x4  startup_stm32f10x_cl.o [1]
  .text               ro code  0x0800df76     0x4  startup_stm32f10x_cl.o [1]
  .text               ro code  0x0800df7a     0x4  startup_stm32f10x_cl.o [1]
  .text               ro code  0x0800df7e     0x4  startup_stm32f10x_cl.o [1]
  .text               ro code  0x0800df82     0x4  startup_stm32f10x_cl.o [1]
  .text               ro code  0x0800df86     0x4  startup_stm32f10x_cl.o [1]
  .text               ro code  0x0800df8a     0x4  startup_stm32f10x_cl.o [1]
  .text               ro code  0x0800df8e     0x4  startup_stm32f10x_cl.o [1]
  .text               ro code  0x0800df92     0x4  startup_stm32f10x_cl.o [1]
  .text               ro code  0x0800df96     0x4  startup_stm32f10x_cl.o [1]
  .text               ro code  0x0800df9a     0x4  startup_stm32f10x_cl.o [1]
  .text               ro code  0x0800df9e     0x4  startup_stm32f10x_cl.o [1]
  .text               ro code  0x0800dfa2     0x4  startup_stm32f10x_cl.o [1]
  .text               ro code  0x0800dfa6     0x4  startup_stm32f10x_cl.o [1]
  .text               ro code  0x0800dfaa     0x4  startup_stm32f10x_cl.o [1]
  .text               ro code  0x0800dfae     0x4  startup_stm32f10x_cl.o [1]
  .text               ro code  0x0800dfb2     0x4  startup_stm32f10x_cl.o [1]
  .text               ro code  0x0800dfb6     0x4  startup_stm32f10x_cl.o [1]
  .text               ro code  0x0800dfba     0x4  startup_stm32f10x_cl.o [1]
  .text               ro code  0x0800dfc0     0x0  cstart_clearlocks.o [5]
  Initializer bytes   ro data  0x0800dfc0    0x78  <for P2 s0>
                             - 0x0800e038  0xdee8

"P2", part 1 of 3:                           0x78
  P2 s0                        0x20000000    0x78  <Init block>
    __DLIB_PERTHREAD  inited   0x20000000    0x50  localeconv.o [3]
    .data             inited   0x20000050    0x10  stm32f10x_rcc.o [1]
    .data             inited   0x20000060     0x8  XShttio.o [3]
    .data             inited   0x20000068     0x4  stm32f10x_rcc.o [1]
    .data             inited   0x2000006c     0x4  tcp.o [1]
    .data             inited   0x20000070     0x2  main.o [1]
    .data             inited   0x20000072     0x1  fun.o [1]
    .data             inited   0x20000073     0x1  uart4.o [1]
    .data             inited   0x20000074     0x1  usart1.o [1]
    .data             inited   0x20000075     0x1  usart2.o [1]
                             - 0x20000078    0x78

"P2", part 2 of 3:                         0xeea8
  .bss                zero     0x20000078  0x44fc  memp.o [1]
  .bss                zero     0x20004574  0x2030  TCPclient.o [1]
  .bss                zero     0x200065a4  0x17c0  ethernetif.o [1]
  .bss                zero     0x20007d64   0xc14  mem.o [1]
  .bss                zero     0x20008978   0xbe0  ethernetif.o [1]
  .bss                zero     0x20009558   0x870  data.o [1]
  .bss                zero     0x20009dc8   0x870  data.o [1]
  .bss                zero     0x2000a638   0x870  data.o [1]
  .bss                zero     0x2000aea8   0x7d4  data.o [1]
  .bss                zero     0x2000b67c   0x5e0  ip_frag.o [1]
  .bss                zero     0x2000bc5c   0x5a0  data.o [1]
  .bss                zero     0x2000c1fc   0x5a0  data.o [1]
  .bss                zero     0x2000c79c   0x578  can1_bus.o [1]
  .bss                zero     0x2000cd14   0x3c0  data.o [1]
  .bss                zero     0x2000d0d4   0x3c0  data.o [1]
  .bss                zero     0x2000d494   0x348  can2_bus.o [1]
  .bss                zero     0x2000d7dc   0x2d0  uart4.o [1]
  .bss                zero     0x2000daac   0x2d0  usart1.o [1]
  .bss                zero     0x2000dd7c   0x2d0  usart2.o [1]
  .bss                zero     0x2000e04c   0x2d0  usart2.o [1]
  .bss                zero     0x2000e31c   0x1d4  dlmalloc.o [3]
  .bss                zero     0x2000e4f0   0x168  data.o [1]
  .bss                zero     0x2000e658   0x168  data.o [1]
  .bss                zero     0x2000e7c0   0x168  data.o [1]
  .bss                zero     0x2000e928    0xc8  etharp.o [1]
  __DLIB_PERTHREAD    zero     0x2000e9f0    0x74  setlocale.o [3]
  .bss                zero     0x2000ea64    0x64  fun.o [1]
  .bss                zero     0x2000eac8    0x40  ethernetif.o [1]
  .bss                zero     0x2000eb08    0x38  xsyslock.o [3]
  .bss                zero     0x2000eb40    0x30  netconf.o [1]
  .bss                zero     0x2000eb70    0x28  photo.o [1]
  .bss                zero     0x2000eb98    0x24  data.o [1]
  .bss                zero     0x2000ebbc    0x24  memp.o [1]
  .bss                zero     0x2000ebe0    0x20  ethernetif.o [1]
  .bss                zero     0x2000ec00    0x20  uart4.o [1]
  .bss                zero     0x2000ec20    0x20  uart4.o [1]
  .bss                zero     0x2000ec40    0x20  uart4.o [1]
  .bss                zero     0x2000ec60    0x20  uart4.o [1]
  .bss                zero     0x2000ec80    0x20  usart1.o [1]
  .bss                zero     0x2000eca0    0x20  usart1.o [1]
  .bss                zero     0x2000ecc0    0x20  usart1.o [1]
  .bss                zero     0x2000ece0    0x20  usart1.o [1]
  .bss                zero     0x2000ed00    0x20  usart2.o [1]
  .bss                zero     0x2000ed20    0x20  usart2.o [1]
  .bss                zero     0x2000ed40    0x20  usart2.o [1]
  .bss                zero     0x2000ed60    0x20  usart2.o [1]
  .bss                zero     0x2000ed80    0x18  list.o [1]
  .bss                zero     0x2000ed98    0x18  list.o [1]
  .bss                zero     0x2000edb0    0x18  dlmalloc.o [3]
  .bss                zero     0x2000edc8    0x14  data.o [1]
  .bss                zero     0x2000eddc    0x14  tcp_in.o [1]
  .bss                zero     0x2000edf0    0x14  uart4.o [1]
  .bss                zero     0x2000ee04    0x14  usart1.o [1]
  .bss                zero     0x2000ee18     0xc  can1_bus.o [1]
  .bss                zero     0x2000ee24     0xc  can2_bus.o [1]
  .bss                zero     0x2000ee30     0xc  data.o [1]
  .bss                zero     0x2000ee3c     0xc  fun.o [1]
  .bss                zero     0x2000ee48     0xc  photo.o [1]
  .bss                zero     0x2000ee54     0x8  data.o [1]
  .bss                zero     0x2000ee5c     0x8  ethernetif.o [1]
  .bss                zero     0x2000ee64     0x4  ip.o [1]
  .bss                zero     0x2000ee68     0x4  ip.o [1]
  .bss                zero     0x2000ee6c     0x4  ip_frag.o [1]
  .bss                zero     0x2000ee70     0x4  main.o [1]
  .bss                zero     0x2000ee74     0x4  mem.o [1]
  .bss                zero     0x2000ee78     0x4  mem.o [1]
  .bss                zero     0x2000ee7c     0x4  mem.o [1]
  .bss                zero     0x2000ee80     0x4  netconf.o [1]
  .bss                zero     0x2000ee84     0x4  netif.o [1]
  .bss                zero     0x2000ee88     0x4  netif.o [1]
  .bss                zero     0x2000ee8c     0x4  raw.o [1]
  .bss                zero     0x2000ee90     0x4  stm32_eth.o [1]
  .bss                zero     0x2000ee94     0x4  stm32_eth.o [1]
  .bss                zero     0x2000ee98     0x4  stm32f107.o [1]
  .bss                zero     0x2000ee9c     0x4  tcp.o [1]
  .bss                zero     0x2000eea0     0x4  tcp.o [1]
  .bss                zero     0x2000eea4     0x4  tcp.o [1]
  .bss                zero     0x2000eea8     0x4  tcp.o [1]
  .bss                zero     0x2000eeac     0x4  tcp.o [1]
  .bss                zero     0x2000eeb0     0x4  tcp.o [1]
  .bss                zero     0x2000eeb4     0x4  tcp_in.o [1]
  .bss                zero     0x2000eeb8     0x4  tcp_in.o [1]
  .bss                zero     0x2000eebc     0x4  tcp_in.o [1]
  .bss                zero     0x2000eec0     0x4  tcp_in.o [1]
  .bss                zero     0x2000eec4     0x4  tcp_in.o [1]
  .bss                zero     0x2000eec8     0x4  tcp_in.o [1]
  .bss                zero     0x2000eecc     0x4  uart4.o [1]
  .bss                zero     0x2000eed0     0x4  udp.o [1]
  .bss                zero     0x2000eed4     0x4  usart1.o [1]
  .bss                zero     0x2000eed8     0x4  usart2.o [1]
  .bss                zero     0x2000eedc     0x4  xgetmemchunk.o [3]
  .bss                zero     0x2000eee0     0x2  TCPclient.o [1]
  .bss                zero     0x2000eee2     0x2  ip.o [1]
  .bss                zero     0x2000eee4     0x2  ip_frag.o [1]
  .bss                zero     0x2000eee6     0x2  main.o [1]
  .bss                zero     0x2000eee8     0x2  tcp_in.o [1]
  .bss                zero     0x2000eeea     0x2  uart4.o [1]
  .bss                zero     0x2000eeec     0x2  uart4.o [1]
  .bss                zero     0x2000eeee     0x2  uart4.o [1]
  .bss                zero     0x2000eef0     0x2  usart1.o [1]
  .bss                zero     0x2000eef2     0x2  usart1.o [1]
  .bss                zero     0x2000eef4     0x2  usart1.o [1]
  .bss                zero     0x2000eef6     0x2  usart2.o [1]
  .bss                zero     0x2000eef8     0x2  usart2.o [1]
  .bss                zero     0x2000eefa     0x1  etharp.o [1]
  .bss                zero     0x2000eefb     0x1  main.o [1]
  .bss                zero     0x2000eefc     0x1  main.o [1]
  .bss                zero     0x2000eefd     0x1  main.o [1]
  .bss                zero     0x2000eefe     0x1  mem.o [1]
  .bss                zero     0x2000eeff     0x1  netif.o [1]
  .bss                zero     0x2000ef00     0x1  photo.o [1]
  .bss                zero     0x2000ef01     0x1  tcp_in.o [1]
  .bss                zero     0x2000ef02     0x1  tcp_in.o [1]
  .bss                zero     0x2000ef03     0x1  uart4.o [1]
  .bss                zero     0x2000ef04     0x1  uart4.o [1]
  .bss                zero     0x2000ef05     0x1  uart4.o [1]
  .bss                zero     0x2000ef06     0x1  uart4.o [1]
  .bss                zero     0x2000ef07     0x1  uart4.o [1]
  .bss                zero     0x2000ef08     0x1  uart4.o [1]
  .bss                zero     0x2000ef09     0x1  uart4.o [1]
  .bss                zero     0x2000ef0a     0x1  uart4.o [1]
  .bss                zero     0x2000ef0b     0x1  usart1.o [1]
  .bss                zero     0x2000ef0c     0x1  usart1.o [1]
  .bss                zero     0x2000ef0d     0x1  usart1.o [1]
  .bss                zero     0x2000ef0e     0x1  usart1.o [1]
  .bss                zero     0x2000ef0f     0x1  usart1.o [1]
  .bss                zero     0x2000ef10     0x1  usart1.o [1]
  .bss                zero     0x2000ef11     0x1  usart1.o [1]
  .bss                zero     0x2000ef12     0x1  usart1.o [1]
  .bss                zero     0x2000ef13     0x1  usart2.o [1]
  .bss                zero     0x2000ef14     0x1  usart2.o [1]
  .bss                zero     0x2000ef15     0x1  usart2.o [1]
  .bss                zero     0x2000ef16     0x1  usart2.o [1]
  .bss                zero     0x2000ef17     0x1  usart2.o [1]
  .bss                zero     0x2000ef18     0x1  usart2.o [1]
  .bss                zero     0x2000ef19     0x1  usart2.o [1]
  .bss                zero     0x2000ef1a     0x1  usart2.o [1]
                             - 0x2000ef1b  0xeea3

"P2", part 3 of 3:                          0x900
  CSTACK                       0x2000ef20   0x800  <Block>
    CSTACK            uninit   0x2000ef20   0x800  <Block tail>
  HEAP                         0x2000f720   0x100  <Block>
    HEAP              uninit   0x2000f720   0x100  <Block tail>
                             - 0x2000f820   0x900


*******************************************************************************
*** INIT TABLE
***

          Address     Size
          -------     ----
Zero (__iar_zero_init3)
    1 destination range, total size 0xeea3:
          0x20000078  0xeea3

Copy (__iar_copy_init3)
    1 source range, total size 0x78 (101% of destination):
          0x0800dfc0    0x78
    1 destination range, total size 0x76:
          0x20000000    0x76


*******************************************************************************
*** MODULE SUMMARY
***

    Module                  ro code  ro data  rw data
    ------                  -------  -------  -------
E:\板卡出厂程序\双can板卡出厂程序\exp_car_ctrl_slaver_v1.4.0.1\Project\EWARMv5\STM3210C-EVAL\Obj: [1]
    TCPclient.o               1 188             8 242
    can1_bus.o                  848             1 412
    can2_bus.o                  864               852
    data.o                      580            14 440
    etharp.o                  2 588               201
    ethernetif.o                720             9 224
    fun.o                       388        1      113
    icmp.o                      504
    inet.o                       54
    inet_chksum.o               172
    ip.o                        872                10
    ip_addr.o                    84
    ip_frag.o                 1 496             1 510
    list.o                       40                48
    main.o                    1 020        2       11
    mem.o                       868             3 105
    memp.o                      228            17 696
    misc.o                      152
    netconf.o                   184                52
    netif.o                     320                 9
    pbuf.o                    1 398
    photo.o                     652                53
    raw.o                       136                 4
    startup_stm32f10x_cl.o      616
    stm32_eth.o               1 802                 8
    stm32f107.o               2 936                 4
    stm32f10x_can.o           1 318
    stm32f10x_dma.o             512
    stm32f10x_exti.o            164
    stm32f10x_flash.o           372
    stm32f10x_gpio.o            472
    stm32f10x_it.o              840
    stm32f10x_rcc.o             488       20       20
    stm32f10x_tim.o              54
    stm32f10x_usart.o           432
    system_stm32f10x.o          408
    tcp.o                     1 216        4       28
    tcp_in.o                  4 956                48
    tcp_out.o                 2 428
    uart4.o                   2 516        1      887
    udp.o                     1 024                 4
    usart1.o                  2 520        1      887
    usart2.o                  3 984        1    1 585
    -------------------------------------------------
    Total:                   44 414       30   60 453

command line: [2]
    -------------------------------------------------
    Total:

dl7M_tlf.a: [3]
    XShttio.o                     8        8        8
    abort.o                      10
    div.o                        14
    dlmalloc.o                4 844               492
    exit.o                        8
    localeconv.o                108       80       80
    low_level_init.o              4
    setlocale.o                  20               116
    sprintf.o                    52
    xencoding_sb.o               92
    xgetmemchunk.o               40                 4
    xmbcurmax.o                  10
    xmbtowc.o                    32
    xmtx.o                        8
    xmtx2.o                       4
    xprintffull.o             4 214
    xsprout.o                    10
    xsyslock.o                  180                56
    xtls.o                        2
    xwctomb.o                    26
    -------------------------------------------------
    Total:                    9 686       88      756

m7M_tl.a: [4]
    DblAdd.o                    230
    DblCmpGe.o                   46
    DblCmpLe.o                   46
    DblDiv.o                    582
    DblMul.o                    418
    DblSub.o                    382
    DblToI32.o                   86
    I32ToDbl.o                   46
    xdnorm.o                     68
    xdscale.o                   280
    -------------------------------------------------
    Total:                    2 184

rt7M_tl.a: [5]
    ABImemcpy.o                 112
    ABImemset.o                 102
    I64DivMod.o                 302
    I64DivZer.o                   2
    cexit.o                      14
    cmain.o                      22
    copy_init3.o                 46
    cstart_clearlocks.o
    cstartup_M.o                 12
    data_init3.o                 44
    memchr.o                     88
    strchr.o                     22
    strlen.o                     54
    zero_init3.o                 34
    -------------------------------------------------
    Total:                      854

shb_l.a: [6]
    exit.o                       20
    iarttio.o                    48
    -------------------------------------------------
    Total:                       68

    Gaps                         38                 2
    Linker created                        38    2 304
-----------------------------------------------------
    Grand Total:             57 244      156   63 515


*******************************************************************************
*** ENTRY LIST
***

Entry                      Address    Size  Type      Object
-----                      -------    ----  ----      ------
?main                   0x0800de69          Code  Gb  cmain.o [5]
ADC1_2_IRQHandler       0x0800df13          Code  Wk  startup_stm32f10x_cl.o [1]
ADCPrescTable           0x20000068     0x4  Data  Lc  stm32f10x_rcc.o [1]
APBAHBPrescTable        0x20000050    0x10  Data  Lc  stm32f10x_rcc.o [1]
ARPTimer                0x2000ee80     0x4  Data  Gb  netconf.o [1]
BusFault_Handler        0x0800dad7     0x8  Code  Gb  stm32f10x_it.o [1]
CAN1_RX0_IRQHandler     0x0800dd37    0x2c  Code  Gb  stm32f10x_it.o [1]
CAN1_RX1_IRQHandler     0x0800df1f          Code  Wk  startup_stm32f10x_cl.o [1]
CAN1_SCE_IRQHandler     0x0800df23          Code  Wk  startup_stm32f10x_cl.o [1]
CAN1_TX_IRQHandler      0x0800df17          Code  Wk  startup_stm32f10x_cl.o [1]
CAN2_RX0_IRQHandler     0x0800dfaf          Code  Wk  startup_stm32f10x_cl.o [1]
CAN2_RX1_IRQHandler     0x0800dd63    0x2c  Code  Gb  stm32f10x_it.o [1]
CAN2_SCE_IRQHandler     0x0800dfb7          Code  Wk  startup_stm32f10x_cl.o [1]
CAN2_TX_IRQHandler      0x0800dfab          Code  Wk  startup_stm32f10x_cl.o [1]
CAN_ClearITPendingBit   0x0800a489    0x96  Code  Gb  stm32f10x_can.o [1]
CAN_Configuration       0x080097cd   0x14c  Code  Gb  stm32f107.o [1]
CAN_DeInit              0x08009ff9    0x34  Code  Gb  stm32f10x_can.o [1]
CAN_FIFORelease         0x0800a39f    0x12  Code  Gb  stm32f10x_can.o [1]
CAN_FilterInit          0x0800a13d    0xe2  Code  Gb  stm32f10x_can.o [1]
CAN_ITConfig            0x0800a269    0x18  Code  Gb  stm32f10x_can.o [1]
CAN_Init                0x0800a02d   0x110  Code  Gb  stm32f10x_can.o [1]
CAN_Receive             0x0800a3b1    0xd8  Code  Gb  stm32f10x_can.o [1]
CAN_StructInit          0x0800a21f    0x2e  Code  Gb  stm32f10x_can.o [1]
CAN_Transmit            0x0800a281   0x11e  Code  Gb  stm32f10x_can.o [1]
CSTACK$$Base            0x2000ef20           --   Gb  - Linker created -
CSTACK$$Limit           0x2000f720           --   Gb  - Linker created -
DEBUG_process           0x0800bbdf    0x32  Code  Gb  TCPclient.o [1]
DMA1_Channel1_IRQHandler
                        0x0800def7          Code  Wk  startup_stm32f10x_cl.o [1]
DMA1_Channel2_IRQHandler
                        0x0800defb          Code  Wk  startup_stm32f10x_cl.o [1]
DMA1_Channel3_IRQHandler
                        0x0800deff          Code  Wk  startup_stm32f10x_cl.o [1]
DMA1_Channel4_IRQHandler
                        0x0800db11    0x2e  Code  Gb  stm32f10x_it.o [1]
DMA1_Channel5_IRQHandler
                        0x0800df07          Code  Wk  startup_stm32f10x_cl.o [1]
DMA1_Channel6_IRQHandler
                        0x0800df0b          Code  Wk  startup_stm32f10x_cl.o [1]
DMA1_Channel7_IRQHandler
                        0x0800db3f    0x2e  Code  Gb  stm32f10x_it.o [1]
DMA2_Channel1_IRQHandler
                        0x0800df8f          Code  Wk  startup_stm32f10x_cl.o [1]
DMA2_Channel2_IRQHandler
                        0x0800df93          Code  Wk  startup_stm32f10x_cl.o [1]
DMA2_Channel3_IRQHandler
                        0x0800df97          Code  Wk  startup_stm32f10x_cl.o [1]
DMA2_Channel4_IRQHandler
                        0x0800df9b          Code  Wk  startup_stm32f10x_cl.o [1]
DMA2_Channel5_IRQHandler
                        0x0800db6d    0x2a  Code  Gb  stm32f10x_it.o [1]
DMARxDescToGet          0x2000ee94     0x4  Data  Gb  stm32_eth.o [1]
DMARxDscrTab            0x2000eac8    0x40  Data  Gb  ethernetif.o [1]
DMATxDescToSet          0x2000ee90     0x4  Data  Gb  stm32_eth.o [1]
DMATxDscrTab            0x2000ebe0    0x20  Data  Gb  ethernetif.o [1]
DMA_ClearFlag           0x08008f33    0x10  Code  Gb  stm32f10x_dma.o [1]
DMA_Cmd                 0x08008ed1    0x1c  Code  Gb  stm32f10x_dma.o [1]
DMA_Configuration       0x080095b5   0x218  Code  Gb  stm32f107.o [1]
DMA_DeInit              0x08008d89   0x10a  Code  Gb  stm32f10x_dma.o [1]
DMA_GetCurrDataCounter  0x08008f0b     0x6  Code  Gb  stm32f10x_dma.o [1]
DMA_GetFlagStatus       0x08008f11    0x22  Code  Gb  stm32f10x_dma.o [1]
DMA_ITConfig            0x08008eed    0x18  Code  Gb  stm32f10x_dma.o [1]
DMA_Init                0x08008e93    0x3e  Code  Gb  stm32f10x_dma.o [1]
DMA_SetCurrDataCounter  0x08008f05     0x6  Code  Gb  stm32f10x_dma.o [1]
Data_Init_motor_para_queue
                        0x08008ff5    0x88  Code  Gb  data.o [1]
Data_Init_struct        0x08008f89    0x6c  Code  Gb  data.o [1]
Data_add_to_moto_para_queue
                        0x0800907d    0x3e  Code  Gb  data.o [1]
DebugMon_Handler        0x0800dae9     0x2  Code  Gb  stm32f10x_it.o [1]
ETH_DMAITConfig         0x0800ad0d    0x28  Code  Gb  stm32_eth.o [1]
ETH_DMAReceptionCmd     0x0800aceb    0x22  Code  Gb  stm32_eth.o [1]
ETH_DMARxDescChainInit  0x0800ac25    0x4c  Code  Gb  stm32_eth.o [1]
ETH_DMARxDescReceiveITConfig
                        0x0800ac79    0x1a  Code  Gb  stm32_eth.o [1]
ETH_DMATransmissionCmd  0x0800acc9    0x22  Code  Gb  stm32_eth.o [1]
ETH_DMATxDescChainInit  0x0800abd7    0x46  Code  Gb  stm32_eth.o [1]
ETH_DMATxDescChecksumInsertionConfig
                        0x0800ac1d     0x8  Code  Gb  stm32_eth.o [1]
ETH_DeInit              0x0800a6b9    0x18  Code  Gb  stm32_eth.o [1]
ETH_Delay               0x0800ada5    0x1e  Code  Lc  stm32_eth.o [1]
ETH_FlushTransmitFIFO   0x0800acbb     0xe  Code  Gb  stm32_eth.o [1]
ETH_GetCurrentTxBuffer  0x0800da5f     0x8  Code  Gb  ethernetif.o [1]
ETH_GetDMARxDescFrameLength
                        0x0800ac71     0x8  Code  Gb  stm32_eth.o [1]
ETH_GetRxPktSize        0x0800aa5d    0x26  Code  Gb  stm32_eth.o [1]
ETH_GetSoftwareResetStatus
                        0x0800aca5    0x16  Code  Gb  stm32_eth.o [1]
ETH_IRQHandler          0x0800dfa3          Code  Wk  startup_stm32f10x_cl.o [1]
ETH_Init                0x0800a6d1   0x282  Code  Gb  stm32_eth.o [1]
ETH_MACAddressConfig    0x0800abad    0x2a  Code  Gb  stm32_eth.o [1]
ETH_MACReceptionCmd     0x0800ab83    0x2a  Code  Gb  stm32_eth.o [1]
ETH_MACTransmissionCmd  0x0800ab59    0x2a  Code  Gb  stm32_eth.o [1]
ETH_ReadPHYRegister     0x0800aa83    0x6a  Code  Gb  stm32_eth.o [1]
ETH_RxPkt_ChainMode     0x0800d97b    0x88  Code  Gb  ethernetif.o [1]
ETH_SoftwareReset       0x0800ac93    0x12  Code  Gb  stm32_eth.o [1]
ETH_Start               0x0800aa3d    0x20  Code  Gb  stm32_eth.o [1]
ETH_StructInit          0x0800a953    0xea  Code  Gb  stm32_eth.o [1]
ETH_TxPkt_ChainMode     0x0800da03    0x5c  Code  Gb  ethernetif.o [1]
ETH_WKUP_IRQHandler     0x0800dfa7          Code  Wk  startup_stm32f10x_cl.o [1]
ETH_WritePHYRegister    0x0800aaed    0x6c  Code  Gb  stm32_eth.o [1]
EXTI0_IRQHandler        0x0800dee3          Code  Wk  startup_stm32f10x_cl.o [1]
EXTI15_10_IRQHandler    0x0800df6b          Code  Wk  startup_stm32f10x_cl.o [1]
EXTI1_IRQHandler        0x0800dee7          Code  Wk  startup_stm32f10x_cl.o [1]
EXTI2_IRQHandler        0x0800deeb          Code  Wk  startup_stm32f10x_cl.o [1]
EXTI3_IRQHandler        0x0800deef          Code  Wk  startup_stm32f10x_cl.o [1]
EXTI4_IRQHandler        0x0800def3          Code  Wk  startup_stm32f10x_cl.o [1]
EXTI9_5_IRQHandler      0x0800df27          Code  Wk  startup_stm32f10x_cl.o [1]
EXTI_ClearITPendingBit  0x08009fdd     0x6  Code  Gb  stm32f10x_exti.o [1]
EXTI_Configuration      0x08009439    0x5a  Code  Gb  stm32f107.o [1]
EXTI_Init               0x08009f55    0x88  Code  Gb  stm32f10x_exti.o [1]
EthInitStatus           0x2000ee98     0x4  Data  Gb  stm32f107.o [1]
Ethernet_Configuration  0x08009979    0xa2  Code  Gb  stm32f107.o [1]
FLASH_ClearFlag         0x0800bf6b     0x8  Code  Gb  stm32f10x_flash.o [1]
FLASH_ErasePage         0x0800beb9    0x64  Code  Gb  stm32f10x_flash.o [1]
FLASH_GetStatus         0x0800bf73    0x2c  Code  Gb  stm32f10x_flash.o [1]
FLASH_IRQHandler        0x0800dedb          Code  Wk  startup_stm32f10x_cl.o [1]
FLASH_Lock              0x0800bea7    0x12  Code  Gb  stm32f10x_flash.o [1]
FLASH_ProgramHalfWord   0x0800bf1d    0x4e  Code  Gb  stm32f10x_flash.o [1]
FLASH_Unlock            0x0800be91    0x16  Code  Gb  stm32f10x_flash.o [1]
FLASH_WaitForLastOperation
                        0x0800bfb9    0x30  Code  Gb  stm32f10x_flash.o [1]
GPIO_Configuration      0x08009a1b   0x30a  Code  Gb  stm32f107.o [1]
GPIO_ETH_MediaInterfaceConfig
                        0x08008bc5     0x6  Code  Gb  stm32f10x_gpio.o [1]
GPIO_EXTILineConfig     0x08008b75    0x50  Code  Gb  stm32f10x_gpio.o [1]
GPIO_Init               0x08008a01    0xcc  Code  Gb  stm32f10x_gpio.o [1]
GPIO_PinRemapConfig     0x08008b05    0x70  Code  Gb  stm32f10x_gpio.o [1]
GPIO_ReadInputDataBit   0x08008acd    0x16  Code  Gb  stm32f10x_gpio.o [1]
GPIO_ReadOutputDataBit  0x08008ae3    0x16  Code  Gb  stm32f10x_gpio.o [1]
GPIO_ResetBits          0x08008aff     0x6  Code  Gb  stm32f10x_gpio.o [1]
GPIO_SetBits            0x08008af9     0x6  Code  Gb  stm32f10x_gpio.o [1]
HEAP$$Base              0x2000f720           --   Gb  - Linker created -
HEAP$$Limit             0x2000f820           --   Gb  - Linker created -
HardFault_Handler       0x0800dac7     0x8  Code  Gb  stm32f10x_it.o [1]
I2C1_ER_IRQHandler      0x0800df4b          Code  Wk  startup_stm32f10x_cl.o [1]
I2C1_EV_IRQHandler      0x0800df47          Code  Wk  startup_stm32f10x_cl.o [1]
I2C2_ER_IRQHandler      0x0800df53          Code  Wk  startup_stm32f10x_cl.o [1]
I2C2_EV_IRQHandler      0x0800df4f          Code  Wk  startup_stm32f10x_cl.o [1]
LocalTime               0x2000ee70     0x4  Data  Gb  main.o [1]
LwIP_Init               0x0800d711    0x78  Code  Gb  netconf.o [1]
LwIP_Periodic_Handle    0x0800d793    0x1e  Code  Gb  netconf.o [1]
LwIP_Pkt_Handle         0x0800d789     0xa  Code  Gb  netconf.o [1]
MACaddr                 0x2000ee5c     0x8  Data  Gb  ethernetif.o [1]
MemManage_Handler       0x0800dacf     0x8  Code  Gb  stm32f10x_it.o [1]
NMI_Handler             0x0800dac5     0x2  Code  Gb  stm32f10x_it.o [1]
NVIC_ClearPendingIRQ    0x0800da99    0x16  Code  Lc  stm32f10x_it.o [1]
NVIC_Configuration      0x08009db9   0x19c  Code  Gb  stm32f107.o [1]
NVIC_Init               0x0800adcf    0x66  Code  Gb  misc.o [1]
NVIC_PriorityGroupConfig
                        0x0800adc5     0xa  Code  Gb  misc.o [1]
NVIC_SetPriority        0x080093dd    0x26  Code  Lc  stm32f107.o [1]
NVIC_SetVectorTable     0x0800ae35     0xc  Code  Gb  misc.o [1]
NVIC_SystemReset        0x0800bd0d    0x16  Code  Lc  fun.o [1]
NVIC_SystemReset        0x0800daaf    0x16  Code  Lc  stm32f10x_it.o [1]
OTG_FS_IRQHandler       0x0800dfbb          Code  Wk  startup_stm32f10x_cl.o [1]
OTG_FS_WKUP_IRQHandler  0x0800df73          Code  Wk  startup_stm32f10x_cl.o [1]
PVD_IRQHandler          0x0800decf          Code  Wk  startup_stm32f10x_cl.o [1]
PendSV_Handler          0x0800daeb     0x2  Code  Gb  stm32f10x_it.o [1]
Pre_Read_UpdateFlag     0x0800cc7d    0x2e  Code  Gb  main.o [1]
RCC_AHBPeriphClockCmd   0x080092d9    0x20  Code  Gb  stm32f10x_rcc.o [1]
RCC_AHBPeriphResetCmd   0x08009339    0x20  Code  Gb  stm32f10x_rcc.o [1]
RCC_APB1PeriphClockCmd  0x08009319    0x20  Code  Gb  stm32f10x_rcc.o [1]
RCC_APB1PeriphResetCmd  0x08009359    0x20  Code  Gb  stm32f10x_rcc.o [1]
RCC_APB2PeriphClockCmd  0x080092f9    0x20  Code  Gb  stm32f10x_rcc.o [1]
RCC_GetClocksFreq       0x080091cd   0x10c  Code  Gb  stm32f10x_rcc.o [1]
RCC_IRQHandler          0x0800dedf          Code  Wk  startup_stm32f10x_cl.o [1]
RCC_MCOConfig           0x08009379     0x6  Code  Gb  stm32f10x_rcc.o [1]
RTCAlarm_IRQHandler     0x0800df6f          Code  Wk  startup_stm32f10x_cl.o [1]
RTC_IRQHandler          0x0800ded7          Code  Wk  startup_stm32f10x_cl.o [1]
Region$$Table$$Base     0x0800de44           --   Gb  - Linker created -
Region$$Table$$Limit    0x0800de68           --   Gb  - Linker created -
Rx_Buff                 0x200065a4  0x17c0  Data  Gb  ethernetif.o [1]
SPI1_IRQHandler         0x0800df57          Code  Wk  startup_stm32f10x_cl.o [1]
SPI2_IRQHandler         0x0800df5b          Code  Wk  startup_stm32f10x_cl.o [1]
SPI3_IRQHandler         0x0800df7b          Code  Wk  startup_stm32f10x_cl.o [1]
SVC_Handler             0x0800dae7     0x2  Code  Gb  stm32f10x_it.o [1]
SetSysClock             0x0800a57f     0x8  Code  Lc  system_stm32f10x.o [1]
SetSysClockTo72         0x0800a587   0x10e  Code  Lc  system_stm32f10x.o [1]
Set_MAC_Address         0x0800d7c9    0x30  Code  Gb  ethernetif.o [1]
SysTick_Config          0x08009403    0x36  Code  Lc  stm32f107.o [1]
SysTick_Handler         0x0800daed     0x8  Code  Gb  stm32f10x_it.o [1]
SystemInit              0x0800a521    0x5e  Code  Gb  system_stm32f10x.o [1]
System_Setup            0x08009919    0x60  Code  Gb  stm32f107.o [1]
TAMPER_IRQHandler       0x0800ded3          Code  Wk  startup_stm32f10x_cl.o [1]
TIM1_BRK_IRQHandler     0x0800df2b          Code  Wk  startup_stm32f10x_cl.o [1]
TIM1_CC_IRQHandler      0x0800df37          Code  Wk  startup_stm32f10x_cl.o [1]
TIM1_TRG_COM_IRQHandler
                        0x0800df33          Code  Wk  startup_stm32f10x_cl.o [1]
TIM1_UP_IRQHandler      0x0800df2f          Code  Wk  startup_stm32f10x_cl.o [1]
TIM2_IRQHandler         0x0800daf5    0x1c  Code  Gb  stm32f10x_it.o [1]
TIM3_IRQHandler         0x0800df3f          Code  Wk  startup_stm32f10x_cl.o [1]
TIM4_IRQHandler         0x0800df43          Code  Wk  startup_stm32f10x_cl.o [1]
TIM5_IRQHandler         0x0800df77          Code  Wk  startup_stm32f10x_cl.o [1]
TIM6_IRQHandler         0x0800df87          Code  Wk  startup_stm32f10x_cl.o [1]
TIM7_IRQHandler         0x0800df8b          Code  Wk  startup_stm32f10x_cl.o [1]
TIM_ClearITPendingBit   0x0800de0f     0x8  Code  Gb  stm32f10x_tim.o [1]
TIM_GetITStatus         0x0800dde1    0x2e  Code  Gb  stm32f10x_tim.o [1]
Time_Update             0x0800ccab    0x3a  Code  Gb  main.o [1]
Tx_Buff                 0x20008978   0xbe0  Data  Gb  ethernetif.o [1]
UART4_IRQHandler        0x0800dcad    0x8a  Code  Gb  stm32f10x_it.o [1]
UART5_IRQHandler        0x0800df83          Code  Wk  startup_stm32f10x_cl.o [1]
USART1_IRQHandler       0x0800dc21    0x8c  Code  Gb  stm32f10x_it.o [1]
USART2_IRQHandler       0x0800db97    0x8a  Code  Gb  stm32f10x_it.o [1]
USART3_IRQHandler       0x0800df67          Code  Wk  startup_stm32f10x_cl.o [1]
USART_ClearFlag         0x08008cf7     0xc  Code  Gb  stm32f10x_usart.o [1]
USART_ClearITPendingBit
                        0x08008d67    0x22  Code  Gb  stm32f10x_usart.o [1]
USART_Cmd               0x08008c71    0x1c  Code  Gb  stm32f10x_usart.o [1]
USART_Configuration     0x08009493   0x122  Code  Gb  stm32f107.o [1]
USART_DMACmd            0x08008cdf    0x18  Code  Gb  stm32f10x_usart.o [1]
USART_GetITStatus       0x08008d03    0x64  Code  Gb  stm32f10x_usart.o [1]
USART_ITConfig          0x08008c8d    0x52  Code  Gb  stm32f10x_usart.o [1]
USART_Init              0x08008bd9    0x90  Code  Gb  stm32f10x_usart.o [1]
UsageFault_Handler      0x0800dadf     0x8  Code  Gb  stm32f10x_it.o [1]
WCS_ACK_timer           0x2000eee0     0x2  Data  Gb  TCPclient.o [1]
WWDG_IRQHandler         0x0800decb          Code  Wk  startup_stm32f10x_cl.o [1]
_EncodingSb_Mbtowc      0x08007945    0x30  Code  Gb  xencoding_sb.o [3]
_EncodingSb_Wctomb      0x08007929    0x1c  Code  Gb  xencoding_sb.o [3]
_GenldDefault           0x08006c1d   0x258  Code  Lc  xprintffull.o [3]
_IsdstStr               0x2000e9f4     0x4  Data  Gb  setlocale.o [3]
_LdtobDefault           0x08006805   0x3fe  Code  Lc  xprintffull.o [3]
_LitobDefault           0x080066e7   0x11e  Code  Lc  xprintffull.o [3]
_LocaleEncoding         0x08007915     0xe  Code  Gb  setlocale.o [3]
_LocaleReturnString     0x2000ea14    0x50  Data  Lc  setlocale.o [3]
_Locale_Profile         0x2000e9f8    0x1c  Data  Gb  setlocale.o [3]
_Locale_lconv           0x20000000    0x50  Data  Gb  localeconv.o [3]
_Mbtowc                 0x08006ecb    0x20  Code  Gb  xmbtowc.o [3]
_Printf                 0x08005e55   0x5d0  Code  Gb  xprintffull.o [3]
_PutcharsDefault        0x08006e75    0x32  Code  Lc  xprintffull.o [3]
_PutstrDefault          0x08006425   0x2c2  Code  Lc  xprintffull.o [3]
_SProut                 0x080031d3     0xa  Code  Gb  xsprout.o [3]
_TzoneStr               0x2000e9f0     0x4  Data  Gb  setlocale.o [3]
_Wctomb                 0x08006f9d    0x1a  Code  Gb  xwctomb.o [3]
__aeabi_cdcmple         0x0800712d          Code  Gb  DblCmpLe.o [4]
__aeabi_cdrcmple        0x0800715d          Code  Gb  DblCmpGe.o [4]
__aeabi_d2iz            0x080072a5          Code  Gb  DblToI32.o [4]
__aeabi_d2uiz           0x080072d1          Code  Gb  DblToI32.o [4]
__aeabi_dadd            0x08007989          Code  Gb  DblAdd.o [4]
__aeabi_ddiv            0x08007651          Code  Gb  DblDiv.o [4]
__aeabi_dmul            0x080074ad          Code  Gb  DblMul.o [4]
__aeabi_dsub            0x0800732d          Code  Gb  DblSub.o [4]
__aeabi_i2d             0x080072fd          Code  Gb  I32ToDbl.o [4]
__aeabi_ldiv0           0x08007985          Code  Gb  I64DivZer.o [5]
__aeabi_ldivmod         0x08006fb9          Code  Gb  I64DivMod.o [5]
__aeabi_memcpy          0x080030fd          Code  Gb  ABImemcpy.o [5]
__aeabi_memcpy4         0x08003117          Code  Gb  ABImemcpy.o [5]
__aeabi_memcpy8         0x08003117          Code  Gb  ABImemcpy.o [5]
__aeabi_memset          0x0800316d          Code  Gb  ABImemset.o [5]
__aeabi_ui2d            0x08007311          Code  Gb  I32ToDbl.o [4]
__aeabi_uldivmod        0x08006fcd          Code  Gb  I64DivMod.o [5]
__cexit_clearlocks      0x0800de8f          Code  Gb  cexit.o [5]
__cmain                 0x0800de69          Code  Gb  cmain.o [5]
__cstart_clearlocks     0x0800dfc1          Code  Gb  cstart_clearlocks.o [5]
__data_GetMemChunk      0x08005d21    0x28  Code  Gb  xgetmemchunk.o [3]
__exit                  0x08005dfd    0x14  Code  Gb  exit.o [6]
__iar_Dnorm             0x080070e9    0x44  Code  Gb  xdnorm.o [4]
__iar_Dscale            0x0800718d   0x118  Code  Gb  xdscale.o [4]
__iar_Locale_lconv_init
                        0x08007899    0x3a  Code  Gb  localeconv.o [3]
__iar_Locksyslock       0x08005d8b    0x56  Code  Gb  xsyslock.o [3]
__iar_Mbcurmax          0x08006f93     0xa  Code  Gb  xmbcurmax.o [3]
__iar_Memchr            0x08006f05          Code  Gb  memchr.o [5]
__iar_Memset            0x0800316d          Code  Gb  ABImemset.o [5]
__iar_Memset_word       0x08003175          Code  Gb  ABImemset.o [5]
__iar_Strchr            0x08006eed          Code  Gb  strchr.o [5]
__iar_Unlocksyslock     0x08005de1    0x16  Code  Gb  xsyslock.o [3]
__iar_clearlocks        0x08005d49    0x42  Code  Gb  xsyslock.o [3]
__iar_close_ttio        0x08005e1d    0x2e  Code  Gb  iarttio.o [6]
__iar_copy_init3        0x080029bf    0x2e  Code  Gb  copy_init3.o [5]
__iar_d2uiz             0x080072db          Code  Gb  DblToI32.o [4]
__iar_dadd              0x0800799b          Code  Gb  DblAdd.o [4]
__iar_data_init3        0x0800de19    0x2c  Code  Gb  data_init3.o [5]
__iar_dlfree            0x0800588f   0x47e  Code  Gb  dlmalloc.o [3]
__iar_dlib_perthread_access
                        0x08007a6f     0x2  Code  Gb  xtls.o [3]
__iar_dlmalloc          0x0800563f   0x250  Code  Gb  dlmalloc.o [3]
__iar_dsub              0x0800733f          Code  Gb  DblSub.o [4]
__iar_dsubStart         0x08007351          Code  Gb  DblSub.o [4]
__iar_file_Mtxdst       0x08005e13     0x2  Code  Gb  xmtx2.o [3]
__iar_file_Mtxinit      0x08005e11     0x2  Code  Gb  xmtx2.o [3]
__iar_lookup_ttioh      0x08005e4d     0x8  Code  Gb  XShttio.o [3]
__iar_program_start     0x0800de9b          Code  Gb  cstartup_M.o [5]
__iar_system_Mtxdst     0x08005e17     0x2  Code  Gb  xmtx.o [3]
__iar_system_Mtxinit    0x08005e15     0x2  Code  Gb  xmtx.o [3]
__iar_system_Mtxlock    0x08005e19     0x2  Code  Gb  xmtx.o [3]
__iar_system_Mtxunlock  0x08005e1b     0x2  Code  Gb  xmtx.o [3]
__iar_ttio_handles      0x20000060     0x8  Data  Lc  XShttio.o [3]
__iar_ui2d              0x08007313          Code  Gb  I32ToDbl.o [4]
__iar_zero_init3        0x08002d73    0x22  Code  Gb  zero_init3.o [5]
__low_level_init        0x0800de7f     0x4  Code  Gb  low_level_init.o [3]
__vector_table          0x08000000          Data  Gb  startup_stm32f10x_cl.o [1]
_call_main              0x0800de75          Code  Gb  cmain.o [5]
_exit                   0x0800de8d          Code  Gb  cexit.o [5]
_gm_                    0x2000e31c   0x1d4  Data  Lc  dlmalloc.o [3]
_main                   0x0800de7b          Code  Gb  cmain.o [5]
abort                   0x08005d15     0xa  Code  Gb  abort.o [3]
ackno                   0x2000eec0     0x4  Data  Lc  tcp_in.o [1]
add_segment             0x08004d9f   0x1f2  Code  Lc  dlmalloc.o [3]
arp_table               0x2000e928    0xc8  Data  Lc  etharp.o [1]
buf                     0x2000b67c   0x5e0  Data  Lc  ip_frag.o [1]
canframequeue_one       0x2000ee18     0xc  Data  Gb  can1_bus.o [1]
canframequeue_two       0x2000ee24     0xc  Data  Gb  can2_bus.o [1]
canframequeuebuff_one   0x2000c79c   0x578  Data  Gb  can1_bus.o [1]
canframequeuebuff_two   0x2000d494   0x348  Data  Gb  can2_bus.o [1]
creat_udp_connect_process
                        0x0800b869    0xa4  Code  Gb  TCPclient.o [1]
current_header          0x2000ee68     0x4  Data  Lc  ip.o [1]
current_netif           0x2000ee64     0x4  Data  Lc  ip.o [1]
datafixedqueue          0x2000eb98    0x24  Data  Gb  data.o [1]
datapcconfig            0x2000ee54     0x8  Data  Gb  data.o [1]
datasyserr              0x2000ee30     0xc  Data  Gb  data.o [1]
datasysmsg              0x2000edc8    0x14  Data  Gb  data.o [1]
delay                   0x0800bfe9    0x1c  Code  Lc  stm32f10x_flash.o [1]
div                     0x08007905     0xe  Code  Gb  div.o [3]
etharp_arp_input        0x08004427   0x156  Code  Gb  etharp.o [1]
etharp_cached_entry     0x2000eefa     0x1  Data  Lc  etharp.o [1]
etharp_ip_input         0x08004401    0x26  Code  Gb  etharp.o [1]
etharp_output           0x0800457d    0xc0  Code  Gb  etharp.o [1]
etharp_query            0x0800463d   0x1ac  Code  Gb  etharp.o [1]
etharp_raw              0x080047f1    0xf0  Code  Lc  etharp.o [1]
etharp_request          0x080048e1    0x28  Code  Gb  etharp.o [1]
etharp_send_ip          0x080042bd    0x40  Code  Lc  etharp.o [1]
etharp_tmr              0x08003f89    0xba  Code  Gb  etharp.o [1]
ethbroadcast            0x0800496c     0x8  Data  Gb  etharp.o [1]
ethernet_input          0x08004909    0x62  Code  Gb  etharp.o [1]
ethernetif_init         0x0800d93f    0x3c  Code  Gb  ethernetif.o [1]
ethernetif_input        0x0800d90b    0x34  Code  Gb  ethernetif.o [1]
ethzero                 0x08004974     0x8  Data  Gb  etharp.o [1]
exit                    0x0800de83     0x8  Code  Gb  exit.o [3]
file_mtx                0x2000eb0c    0x20  Data  Lc  xsyslock.o [3]
find_entry              0x08004043   0x27a  Code  Lc  etharp.o [1]
flags                   0x2000ef01     0x1  Data  Lc  tcp_in.o [1]
free_etharp_q           0x08003f61    0x28  Code  Lc  etharp.o [1]
get_ip_para_process     0x0800bc11    0xd6  Code  Gb  TCPclient.o [1]
getmsgfrommotoparaqueue
                        0x080090bb    0x28  Code  Gb  data.o [1]
heart_cnt               0x20000072     0x1  Data  Gb  fun.o [1]
htonl                   0x080014c3    0x18  Code  Gb  inet.o [1]
htons                   0x080014ad     0xc  Code  Gb  inet.o [1]
icmp_dest_unreach       0x08003ed7     0xe  Code  Gb  icmp.o [1]
icmp_input              0x08003d69   0x16e  Code  Gb  icmp.o [1]
icmp_send_response      0x08003ef3    0x6e  Code  Lc  icmp.o [1]
icmp_time_exceeded      0x08003ee5     0xe  Code  Gb  icmp.o [1]
inet_chksum             0x080049c7     0xe  Code  Gb  inet_chksum.o [1]
inet_chksum_pbuf        0x080049d5    0x54  Code  Gb  inet_chksum.o [1]
init_mparams            0x08004a29    0x34  Code  Lc  dlmalloc.o [3]
init_top                0x08004a5d    0x3c  Code  Lc  dlmalloc.o [3]
inseg                   0x2000eddc    0x14  Data  Lc  tcp_in.o [1]
iostate                 0x2000aea8   0x7d4  Data  Gb  data.o [1]
ip_addr_any             0x08001aa8     0x4  Data  Gb  ip_addr.o [1]
ip_addr_isbroadcast     0x08001a59    0x50  Code  Gb  ip_addr.o [1]
ip_frag                 0x0800377b   0x16a  Code  Gb  ip_frag.o [1]
ip_input                0x08002de1   0x19e  Code  Gb  ip.o [1]
ip_output               0x080030c1    0x3c  Code  Gb  ip.o [1]
ip_output_if            0x08002f7f   0x12c  Code  Gb  ip.o [1]
ip_reass                0x080035d5   0x1a6  Code  Gb  ip_frag.o [1]
ip_reass_chain_frag_into_datagram_and_validate
                        0x0800349b   0x13a  Code  Lc  ip_frag.o [1]
ip_reass_dequeue_datagram
                        0x08003475    0x26  Code  Lc  ip_frag.o [1]
ip_reass_enqueue_new_datagram
                        0x0800341b    0x5a  Code  Lc  ip_frag.o [1]
ip_reass_free_complete_datagram
                        0x0800331d    0x86  Code  Lc  ip_frag.o [1]
ip_reass_pbufcount      0x2000eee4     0x2  Data  Lc  ip_frag.o [1]
ip_reass_remove_oldest_datagram
                        0x080033a3    0x78  Code  Lc  ip_frag.o [1]
ip_route                0x08002d95    0x4c  Code  Gb  ip.o [1]
iphdr                   0x2000eeb8     0x4  Data  Lc  tcp_in.o [1]
key_value               0x2000eefb     0x1  Data  Gb  main.o [1]
lfree                   0x2000ee7c     0x4  Data  Lc  mem.o [1]
list_load               0x2000ed98    0x18  Data  Gb  list.o [1]
list_unload             0x2000ed80    0x18  Data  Gb  list.o [1]
loadcar_dataitem        0x2000d0d4   0x3c0  Data  Gb  data.o [1]
loadcar_listitem        0x2000c1fc   0x5a0  Data  Gb  data.o [1]
localeconv              0x080078d3    0x16  Code  Gb  localeconv.o [3]
low_level_init          0x0800d7f9    0x8c  Code  Lc  ethernetif.o [1]
low_level_input         0x0800d8b3    0x58  Code  Lc  ethernetif.o [1]
low_level_output        0x0800d885    0x2e  Code  Lc  ethernetif.o [1]
lwip_standard_chksum    0x0800497d    0x4a  Code  Lc  inet_chksum.o [1]
main                    0x0800cbe5    0x7c  Code  Gb  main.o [1]
main_init_cmd           0x0800cd55    0x30  Code  Gb  main.o [1]
main_one_ms_sec_process
                        0x0800cce5    0x36  Code  Gb  main.o [1]
main_rolling_process    0x0800cd85     0xc  Code  Gb  main.o [1]
mem_free                0x08002ad1    0x4a  Code  Gb  mem.o [1]
mem_init                0x08002a7d    0x54  Code  Gb  mem.o [1]
mem_malloc              0x08002c1d   0x11e  Code  Gb  mem.o [1]
mem_realloc             0x08002b1b   0x102  Code  Gb  mem.o [1]
mem_sem                 0x2000eefe     0x1  Data  Lc  mem.o [1]
memchr                  0x08006f05          Code  Gb  memchr.o [5]
memcpy                  0x08002d51     0xe  Code  Gb  tcp_out.o [1]
memp_free               0x08001ffb    0x24  Code  Gb  memp.o [1]
memp_init               0x08001f6d    0x5e  Code  Gb  memp.o [1]
memp_malloc             0x08001fcb    0x30  Code  Gb  memp.o [1]
memp_memory             0x20000078  0x44fc  Data  Lc  memp.o [1]
memp_num                0x0800203c    0x14  Data  Lc  memp.o [1]
memp_sizes              0x08002028    0x14  Data  Lc  memp.o [1]
memp_tab                0x2000ebbc    0x24  Data  Lc  memp.o [1]
memset                  0x08002d5f    0x14  Code  Gb  udp.o [1]
moto_one_err            0x2000ecc0    0x20  Data  Gb  usart1.o [1]
moto_three_err          0x2000ec40    0x20  Data  Gb  uart4.o [1]
moto_two_err            0x2000ed40    0x20  Data  Gb  usart2.o [1]
motoone_typetwo_err     0x2000ece0    0x20  Data  Gb  usart1.o [1]
motoonepara             0x2000daac   0x2d0  Data  Gb  usart1.o [1]
motooneparabuff         0x20009558   0x870  Data  Gb  data.o [1]
motooneprarqueue        0x2000e4f0   0x168  Data  Gb  data.o [1]
motothree_typetwo_err   0x2000ec60    0x20  Data  Gb  uart4.o [1]
motothreepara           0x2000d7dc   0x2d0  Data  Gb  uart4.o [1]
motothreeparabuff       0x2000a638   0x870  Data  Gb  data.o [1]
motothreeprarqueue      0x2000e7c0   0x168  Data  Gb  data.o [1]
mototwo_typetwo_err     0x2000ed60    0x20  Data  Gb  usart2.o [1]
mototwocopy             0x2000e04c   0x2d0  Data  Gb  usart2.o [1]
mototwopara             0x2000dd7c   0x2d0  Data  Gb  usart2.o [1]
mototwoparabuff         0x20009dc8   0x870  Data  Gb  data.o [1]
mototwoprarqueue        0x2000e658   0x168  Data  Gb  data.o [1]
mparams                 0x2000edb0    0x18  Data  Lc  dlmalloc.o [3]
mtx                     0x2000eb2c    0x14  Data  Lc  xsyslock.o [3]
netif                   0x2000eb40    0x30  Data  Gb  netconf.o [1]
netif_add               0x080031dd    0x52  Code  Gb  netif.o [1]
netif_default           0x2000ee88     0x4  Data  Gb  netif.o [1]
netif_is_up             0x08003313     0xa  Code  Gb  netif.o [1]
netif_list              0x2000ee84     0x4  Data  Gb  netif.o [1]
netif_set_addr          0x0800322f    0x20  Code  Gb  netif.o [1]
netif_set_default       0x080032d1     0x6  Code  Gb  netif.o [1]
netif_set_gw            0x080032b5     0xe  Code  Gb  netif.o [1]
netif_set_ipaddr        0x0800324f    0x66  Code  Gb  netif.o [1]
netif_set_netmask       0x080032c3     0xe  Code  Gb  netif.o [1]
netif_set_up            0x080032ed    0x26  Code  Gb  netif.o [1]
ntohl                   0x080014db     0x8  Code  Gb  inet.o [1]
ntohs                   0x080014b9     0xa  Code  Gb  inet.o [1]
one_ms_flag             0x2000eefd     0x1  Data  Gb  main.o [1]
pbuf_alloc              0x080014e3   0x1ac  Code  Gb  pbuf.o [1]
pbuf_cat                0x08001839    0x32  Code  Gb  pbuf.o [1]
pbuf_chain              0x0800186b    0x12  Code  Gb  pbuf.o [1]
pbuf_clen               0x0800181b    0x12  Code  Gb  pbuf.o [1]
pbuf_copy               0x0800187d    0xbe  Code  Gb  pbuf.o [1]
pbuf_copy_partial       0x0800193b    0x98  Code  Gb  pbuf.o [1]
pbuf_free               0x080017a5    0x76  Code  Gb  pbuf.o [1]
pbuf_header             0x08001711    0x94  Code  Gb  pbuf.o [1]
pbuf_realloc            0x0800168f    0x82  Code  Gb  pbuf.o [1]
pbuf_ref                0x0800182d     0xc  Code  Gb  pbuf.o [1]
pbuf_take               0x080019d3    0x86  Code  Gb  pbuf.o [1]
pcfunmsgQueue           0x2000ee3c     0xc  Data  Gb  fun.o [1]
pcfunmsgQueueBuff       0x2000ea64    0x64  Data  Gb  fun.o [1]
photo_test              0x0800d4b9   0x210  Code  Gb  photo.o [1]
photovalue              0x2000ef00     0x1  Data  Gb  photo.o [1]
plug_holes              0x080029ed    0x90  Code  Lc  mem.o [1]
port_info               0x2000eb70    0x28  Data  Gb  photo.o [1]
prepend_alloc           0x08004a99   0x306  Code  Lc  dlmalloc.o [3]
ram                     0x2000ee74     0x4  Data  Lc  mem.o [1]
ram_end                 0x2000ee78     0x4  Data  Lc  mem.o [1]
ram_heap                0x20007d64   0xc14  Data  Lc  mem.o [1]
raw_input               0x080038f5    0x82  Code  Gb  raw.o [1]
raw_pcbs                0x2000ee8c     0x4  Data  Lc  raw.o [1]
readFlash_uint          0x0800cc61    0x1c  Code  Gb  main.o [1]
reassdatagrams          0x2000ee6c     0x4  Data  Lc  ip_frag.o [1]
recv_data               0x2000eec4     0x4  Data  Lc  tcp_in.o [1]
recv_flags              0x2000ef02     0x1  Data  Lc  tcp_in.o [1]
scan_key_process        0x0800caab   0x13a  Code  Gb  main.o [1]
sec_flag                0x2000eee6     0x2  Data  Gb  main.o [1]
sec_process             0x0800c9d9    0xd2  Code  Gb  main.o [1]
sec_reg                 0x20000070     0x2  Data  Gb  main.o [1]
second_cnt              0x2000eefc     0x1  Data  Gb  main.o [1]
seqno                   0x2000eebc     0x4  Data  Lc  tcp_in.o [1]
sprintf                 0x0800b835    0x34  Code  Gb  sprintf.o [3]
strchr                  0x08006eed          Code  Gb  strchr.o [5]
strlen                  0x08006f5d          Code  Gb  strlen.o [5]
sys_alloc               0x08004f91   0x140  Code  Lc  dlmalloc.o [3]
syslock_o               0x2000eb08     0x4  Data  Lc  xsyslock.o [3]
sysmsg                  0x2000ee48     0xc  Data  Gb  photo.o [1]
tcp_abandon             0x08001bcd    0xb0  Code  Gb  tcp.o [1]
tcp_active_pcbs         0x2000eea8     0x4  Data  Gb  tcp.o [1]
tcp_alloc               0x08001d91    0xb6  Code  Gb  tcp.o [1]
tcp_bound_pcbs          0x2000eea0     0x4  Data  Gb  tcp.o [1]
tcp_client_list         0x20004574  0x2030  Data  Gb  TCPclient.o [1]
tcp_close               0x08001aad   0x120  Code  Gb  tcp.o [1]
tcp_eff_send_mss        0x08001f45    0x28  Code  Gb  tcp.o [1]
tcp_enqueue             0x080020e1   0x48e  Code  Gb  tcp_out.o [1]
tcp_input               0x08000151   0x4bc  Code  Gb  tcp_in.o [1]
tcp_input_pcb           0x2000eec8     0x4  Data  Gb  tcp_in.o [1]
tcp_kill_prio           0x08001d13    0x4a  Code  Lc  tcp.o [1]
tcp_kill_timewait       0x08001d5d    0x34  Code  Lc  tcp.o [1]
tcp_listen_input        0x0800060d   0x146  Code  Lc  tcp_in.o [1]
tcp_listen_pcbs         0x2000eea4     0x4  Data  Gb  tcp.o [1]
tcp_next_iss            0x08001f0d    0x14  Code  Gb  tcp.o [1]
tcp_output              0x0800256f   0x26c  Code  Gb  tcp_out.o [1]
tcp_output_segment      0x080027db    0xbe  Code  Lc  tcp_out.o [1]
tcp_output_set_header   0x08002051    0x76  Code  Lc  tcp_out.o [1]
tcp_parseopt            0x080013d9    0xae  Code  Lc  tcp_in.o [1]
tcp_pcb_purge           0x08001e47    0x3a  Code  Gb  tcp.o [1]
tcp_pcb_remove          0x08001e81    0x8c  Code  Gb  tcp.o [1]
tcp_process             0x080007a1   0x550  Code  Lc  tcp_in.o [1]
tcp_receive             0x08000d25   0x6ae  Code  Lc  tcp_in.o [1]
tcp_recv_null           0x08001cf5    0x1e  Code  Lc  tcp.o [1]
tcp_rexmit              0x0800296b    0x54  Code  Gb  tcp_out.o [1]
tcp_rst                 0x080028a5    0xc6  Code  Gb  tcp_out.o [1]
tcp_seg_free            0x08001ccf    0x26  Code  Gb  tcp.o [1]
tcp_segs_free           0x08001cb5    0x1a  Code  Gb  tcp.o [1]
tcp_send_ctrl           0x080020c7    0x1a  Code  Gb  tcp_out.o [1]
tcp_ticks               0x2000ee9c     0x4  Data  Gb  tcp.o [1]
tcp_timewait_input      0x08000753    0x4e  Code  Lc  tcp_in.o [1]
tcp_tmp_pcb             0x2000eeb0     0x4  Data  Gb  tcp.o [1]
tcp_tw_pcbs             0x2000eeac     0x4  Data  Gb  tcp.o [1]
tcp_update_rcv_ann_wnd  0x08001c7d    0x38  Code  Gb  tcp.o [1]
tcphdr                  0x2000eeb4     0x4  Data  Lc  tcp_in.o [1]
tcplen                  0x2000eee8     0x2  Data  Lc  tcp_in.o [1]
tmalloc_large           0x080050e1   0x374  Code  Lc  dlmalloc.o [3]
tmalloc_small           0x08005455   0x1e4  Code  Lc  dlmalloc.o [3]
u16pcfun_get_msg_from_net_Queue
                        0x0800bd39    0x26  Code  Gb  fun.o [1]
u16pcfun_getmsg_from_sdsQueue
                        0x0800bd5f     0xa  Code  Gb  fun.o [1]
u8canbus_send_oneframe_one
                        0x0800ce2b    0x6a  Code  Gb  can1_bus.o [1]
u8canbus_send_oneframe_two
                        0x0800d181    0x6c  Code  Gb  can2_bus.o [1]
u8pcfun_recv_msg_check  0x0800bd69    0x30  Code  Gb  fun.o [1]
uart4_ctr_process       0x0800c589   0x296  Code  Gb  uart4.o [1]
uart4_cur_moto_para     0x2000eecc     0x4  Data  Gb  uart4.o [1]
uart4_cur_moto_para_num
                        0x2000ef04     0x1  Data  Gb  uart4.o [1]
uart4_moto_commu_statue
                        0x2000ef03     0x1  Data  Gb  uart4.o [1]
uart4_moto_ctr_statue   0x20000073     0x1  Data  Gb  uart4.o [1]
uart4_moto_recv_now_process
                        0x0800c167    0x74  Code  Gb  uart4.o [1]
uart4_moto_reply_outtimer
                        0x2000ef06     0x1  Data  Gb  uart4.o [1]
uart4_moto_reply_time_count
                        0x0800c0db    0x32  Code  Gb  uart4.o [1]
uart4_moto_resend_time  0x2000ef08     0x1  Data  Gb  uart4.o [1]
uart4_moto_send_num     0x2000ef0a     0x1  Data  Gb  uart4.o [1]
uart4_moto_send_process
                        0x0800c10d    0x5a  Code  Gb  uart4.o [1]
uart4_moto_waitrun_timer
                        0x2000ef07     0x1  Data  Gb  uart4.o [1]
uart4_moto_waitrunask_timer
                        0x2000ef09     0x1  Data  Gb  uart4.o [1]
uart4_pre_moto_para_num
                        0x2000ef05     0x1  Data  Gb  uart4.o [1]
uart4_recv_buff         0x2000ec20    0x20  Data  Gb  uart4.o [1]
uart4_recv_len          0x2000eeec     0x2  Data  Gb  uart4.o [1]
uart4_recv_testbuff     0x2000edf0    0x14  Data  Gb  uart4.o [1]
uart4_recv_testlen      0x2000eeee     0x2  Data  Gb  uart4.o [1]
uart4_send_buff         0x2000ec00    0x20  Data  Gb  uart4.o [1]
uart4_send_len          0x2000eeea     0x2  Data  Gb  uart4.o [1]
uart4_send_moto_askrun_process
                        0x0800c319    0xdc  Code  Gb  uart4.o [1]
uart4_send_moto_para_process
                        0x0800c1db   0x13e  Code  Gb  uart4.o [1]
uart4_send_moto_run_process
                        0x0800c3f5   0x194  Code  Gb  uart4.o [1]
uart4_send_uart4_recv_msg
                        0x0800c8ff    0x62  Code  Gb  uart4.o [1]
uart4_send_usart_send_recv_test
                        0x0800c8d3    0x2c  Code  Gb  uart4.o [1]
udp_bind                0x08003c6d    0x78  Code  Gb  udp.o [1]
udp_client_process      0x0800bb89    0x56  Code  Gb  TCPclient.o [1]
udp_connect             0x08003ce5    0x5a  Code  Gb  udp.o [1]
udp_echoclient_connect  0x0800b90d   0x10c  Code  Gb  TCPclient.o [1]
udp_input               0x0800397d   0x1c6  Code  Gb  udp.o [1]
udp_new                 0x08003d49    0x20  Code  Gb  udp.o [1]
udp_pcbs                0x2000eed0     0x4  Data  Gb  udp.o [1]
udp_receive_callback    0x0800ba19   0x104  Code  Gb  TCPclient.o [1]
udp_recv                0x08003d3f     0x6  Code  Gb  udp.o [1]
udp_send                0x08003b43     0xc  Code  Gb  udp.o [1]
udp_send_process        0x0800bb1d    0x6c  Code  Gb  TCPclient.o [1]
udp_sendto              0x08003b4f    0x2c  Code  Gb  udp.o [1]
udp_sendto_if           0x08003b7b    0xf2  Code  Gb  udp.o [1]
unloadcar_dataitem      0x2000cd14   0x3c0  Data  Gb  data.o [1]
unloadcar_listitem      0x2000bc5c   0x5a0  Data  Gb  data.o [1]
update_arp_entry        0x080042fd   0x104  Code  Lc  etharp.o [1]
usart1_ctr_process      0x0800b3e1   0x296  Code  Gb  usart1.o [1]
usart1_cur_moto_para    0x2000eed4     0x4  Data  Gb  usart1.o [1]
usart1_cur_moto_para_num
                        0x2000ef0c     0x1  Data  Gb  usart1.o [1]
usart1_moto_commu_statue
                        0x2000ef0b     0x1  Data  Gb  usart1.o [1]
usart1_moto_ctr_statue  0x20000074     0x1  Data  Gb  usart1.o [1]
usart1_moto_recv_now_process
                        0x0800afc1    0x72  Code  Gb  usart1.o [1]
usart1_moto_reply_outtimer
                        0x2000ef0e     0x1  Data  Gb  usart1.o [1]
usart1_moto_reply_time_count
                        0x0800af33    0x32  Code  Gb  usart1.o [1]
usart1_moto_resend_time
                        0x2000ef10     0x1  Data  Gb  usart1.o [1]
usart1_moto_send_num    0x2000ef12     0x1  Data  Gb  usart1.o [1]
usart1_moto_send_process
                        0x0800af65    0x5c  Code  Gb  usart1.o [1]
usart1_moto_waitrun_timer
                        0x2000ef0f     0x1  Data  Gb  usart1.o [1]
usart1_moto_waitrunask_timer
                        0x2000ef11     0x1  Data  Gb  usart1.o [1]
usart1_pre_moto_para_num
                        0x2000ef0d     0x1  Data  Gb  usart1.o [1]
usart1_recv_buff        0x2000eca0    0x20  Data  Gb  usart1.o [1]
usart1_recv_len         0x2000eef2     0x2  Data  Gb  usart1.o [1]
usart1_recv_testbuff    0x2000ee04    0x14  Data  Gb  usart1.o [1]
usart1_recv_testlen     0x2000eef4     0x2  Data  Gb  usart1.o [1]
usart1_send_buff        0x2000ec80    0x20  Data  Gb  usart1.o [1]
usart1_send_len         0x2000eef0     0x2  Data  Gb  usart1.o [1]
usart1_send_moto_askrun_process
                        0x0800b171    0xdc  Code  Gb  usart1.o [1]
usart1_send_moto_para_process
                        0x0800b033   0x13e  Code  Gb  usart1.o [1]
usart1_send_moto_run_process
                        0x0800b24d   0x194  Code  Gb  usart1.o [1]
usart1_send_usart1_recv_msg
                        0x0800b757    0x62  Code  Gb  usart1.o [1]
usart1_send_usart_send_recv_test
                        0x0800b72b    0x2c  Code  Gb  usart1.o [1]
usart2_ctr_process      0x080083a1   0x336  Code  Gb  usart2.o [1]
usart2_cur_moto_para    0x2000eed8     0x4  Data  Gb  usart2.o [1]
usart2_cur_moto_para_num
                        0x2000ef14     0x1  Data  Gb  usart2.o [1]
usart2_moto_commu_statue
                        0x2000ef13     0x1  Data  Gb  usart2.o [1]
usart2_moto_ctr_statue  0x20000075     0x1  Data  Gb  usart2.o [1]
usart2_moto_recv_now_process
                        0x08007d27   0x266  Code  Gb  usart2.o [1]
usart2_moto_reply_outtimer
                        0x2000ef16     0x1  Data  Gb  usart2.o [1]
usart2_moto_reply_time_count
                        0x08007c9b    0x32  Code  Gb  usart2.o [1]
usart2_moto_resend_time
                        0x2000ef18     0x1  Data  Gb  usart2.o [1]
usart2_moto_send_num    0x2000ef1a     0x1  Data  Gb  usart2.o [1]
usart2_moto_send_process
                        0x08007ccd    0x5a  Code  Gb  usart2.o [1]
usart2_moto_waitrun_timer
                        0x2000ef17     0x1  Data  Gb  usart2.o [1]
usart2_moto_waitrunask_timer
                        0x2000ef19     0x1  Data  Gb  usart2.o [1]
usart2_pre_moto_para_num
                        0x2000ef15     0x1  Data  Gb  usart2.o [1]
usart2_recv_buff        0x2000ed20    0x20  Data  Gb  usart2.o [1]
usart2_recv_len         0x2000eef8     0x2  Data  Gb  usart2.o [1]
usart2_send_buff        0x2000ed00    0x20  Data  Gb  usart2.o [1]
usart2_send_len         0x2000eef6     0x2  Data  Gb  usart2.o [1]
usart2_send_moto_askrun_process
                        0x08008133    0xda  Code  Gb  usart2.o [1]
usart2_send_moto_para_process
                        0x08007f8d   0x1a6  Code  Gb  usart2.o [1]
usart2_send_moto_run_process
                        0x0800820d   0x184  Code  Gb  usart2.o [1]
vListInitialise         0x080093b5    0x22  Code  Gb  list.o [1]
vListInitialiseItem     0x080093d7     0x6  Code  Gb  list.o [1]
vcan1_reply_check_slaver
                        0x0800d0c3    0x52  Code  Gb  can1_bus.o [1]
vcan1_send_check_slaver
                        0x0800d071    0x52  Code  Gb  can1_bus.o [1]
vcan2_reply_check_slaver
                        0x0800d423    0x52  Code  Gb  can2_bus.o [1]
vcan2_send_check_slaver
                        0x0800d3d1    0x52  Code  Gb  can2_bus.o [1]
vcan_send_frame_process
                        0x0800d379    0x4c  Code  Gb  can2_bus.o [1]
vcan_sendframe_process_one
                        0x0800d015    0x4a  Code  Gb  can1_bus.o [1]
vcan_sendmsg_one        0x0800cf37    0xde  Code  Gb  can1_bus.o [1]
vcan_sendmsg_two        0x0800d299    0xe0  Code  Gb  can2_bus.o [1]
vcanbus_addto_cansendqueue_one
                        0x0800cdeb    0x40  Code  Gb  can1_bus.o [1]
vcanbus_addto_cansendqueue_two
                        0x0800d13f    0x42  Code  Gb  can2_bus.o [1]
vcanbus_frame_receive_two
                        0x0800d1f5    0x9a  Code  Gb  can2_bus.o [1]
vcanbus_framereceive_one
                        0x0800ce95    0xa2  Code  Gb  can1_bus.o [1]
vcanbus_init_cansendqueue_two
                        0x0800d125    0x1a  Code  Gb  can2_bus.o [1]
vcanbus_initcansendqueue_one
                        0x0800cdd5    0x16  Code  Gb  can1_bus.o [1]
vdata_list_int          0x08009177    0x10  Code  Gb  data.o [1]
vdata_list_item_init    0x080090e3    0x94  Code  Gb  data.o [1]
vpcfun_init_net_Queue   0x0800bd23    0x16  Code  Gb  fun.o [1]
vpcfun_recv_message_from_sever
                        0x0800bdcd    0x24  Code  Gb  fun.o [1]
vpcfun_recv_msg_process
                        0x0800bd99    0x34  Code  Gb  fun.o [1]
vpcfun_send_heart_msg   0x0800bdf1    0x3a  Code  Gb  fun.o [1]
vpcfun_send_message_to_sever
                        0x0800be2b    0x3c  Code  Gb  fun.o [1]
vphoto_init_msg         0x0800d485    0x34  Code  Gb  photo.o [1]
vuart4_moto_init        0x0800c005    0xd6  Code  Gb  uart4.o [1]
vuart4_upload_cartest_peocess
                        0x0800c81f    0xb4  Code  Gb  uart4.o [1]
vusart1_moto_init       0x0800ae5d    0xd6  Code  Gb  usart1.o [1]
vusart1_upload_cartest_peocess
                        0x0800b677    0xb4  Code  Gb  usart1.o [1]
vusart2_copy_moto_two   0x080088a9   0x130  Code  Gb  usart2.o [1]
vusart2_moto_init       0x08007a71   0x22a  Code  Gb  usart2.o [1]
vusart2_upload_cartest_peocess
                        0x080086ed   0x196  Code  Gb  usart2.o [1]


[1] = E:\板卡出厂程序\双can板卡出厂程序\exp_car_ctrl_slaver_v1.4.0.1\Project\EWARMv5\STM3210C-EVAL\Obj
[2] = command line
[3] = dl7M_tlf.a
[4] = m7M_tl.a
[5] = rt7M_tl.a
[6] = shb_l.a

  57 244 bytes of readonly  code memory
     156 bytes of readonly  data memory
  63 515 bytes of readwrite data memory

Errors: none
Warnings: none
