###############################################################################
#                                                                             #
# IAR ELF Linker V6.10.1.52143/W32 for ARM              07/Jan/2017  16:33:50 #
# Copyright 2007-2010 IAR Systems AB.                                         #
#                                                                             #
#    Output file  =  D:\Express\EXP_CAR_PROJECT\EXP_CAR_ETH_BOOT_PROJECT_V1_2 #
#                    _T170101\Project\EWARMv5\STM3210C-EVAL\Exe\STM3210C-EVAL #
#                    .out                                                     #
#    Map file     =  D:\Express\EXP_CAR_PROJECT\EXP_CAR_ETH_BOOT_PROJECT_V1_2 #
#                    _T170101\Project\EWARMv5\STM3210C-EVAL\List\STM3210C-EVA #
#                    L.map                                                    #
#    Command line =  D:\Express\EXP_CAR_PROJECT\EXP_CAR_ETH_BOOT_PROJECT_V1_2 #
#                    _T170101\Project\EWARMv5\STM3210C-EVAL\Obj\api_lib.o     #
#                    D:\Express\EXP_CAR_PROJECT\EXP_CAR_ETH_BOOT_PROJECT_V1_2 #
#                    _T170101\Project\EWARMv5\STM3210C-EVAL\Obj\api_msg.o     #
#                    D:\Express\EXP_CAR_PROJECT\EXP_CAR_ETH_BOOT_PROJECT_V1_2 #
#                    _T170101\Project\EWARMv5\STM3210C-EVAL\Obj\autoip.o      #
#                    D:\Express\EXP_CAR_PROJECT\EXP_CAR_ETH_BOOT_PROJECT_V1_2 #
#                    _T170101\Project\EWARMv5\STM3210C-EVAL\Obj\core_cm3.o    #
#                    D:\Express\EXP_CAR_PROJECT\EXP_CAR_ETH_BOOT_PROJECT_V1_2 #
#                    _T170101\Project\EWARMv5\STM3210C-EVAL\Obj\dhcp.o        #
#                    D:\Express\EXP_CAR_PROJECT\EXP_CAR_ETH_BOOT_PROJECT_V1_2 #
#                    _T170101\Project\EWARMv5\STM3210C-EVAL\Obj\err.o         #
#                    D:\Express\EXP_CAR_PROJECT\EXP_CAR_ETH_BOOT_PROJECT_V1_2 #
#                    _T170101\Project\EWARMv5\STM3210C-EVAL\Obj\etharp.o      #
#                    D:\Express\EXP_CAR_PROJECT\EXP_CAR_ETH_BOOT_PROJECT_V1_2 #
#                    _T170101\Project\EWARMv5\STM3210C-EVAL\Obj\ethernetif.o  #
#                    D:\Express\EXP_CAR_PROJECT\EXP_CAR_ETH_BOOT_PROJECT_V1_2 #
#                    _T170101\Project\EWARMv5\STM3210C-EVAL\Obj\fun.o         #
#                    D:\Express\EXP_CAR_PROJECT\EXP_CAR_ETH_BOOT_PROJECT_V1_2 #
#                    _T170101\Project\EWARMv5\STM3210C-EVAL\Obj\icmp.o        #
#                    D:\Express\EXP_CAR_PROJECT\EXP_CAR_ETH_BOOT_PROJECT_V1_2 #
#                    _T170101\Project\EWARMv5\STM3210C-EVAL\Obj\igmp.o        #
#                    D:\Express\EXP_CAR_PROJECT\EXP_CAR_ETH_BOOT_PROJECT_V1_2 #
#                    _T170101\Project\EWARMv5\STM3210C-EVAL\Obj\inet.o        #
#                    D:\Express\EXP_CAR_PROJECT\EXP_CAR_ETH_BOOT_PROJECT_V1_2 #
#                    _T170101\Project\EWARMv5\STM3210C-EVAL\Obj\inet_chksum.o #
#                     D:\Express\EXP_CAR_PROJECT\EXP_CAR_ETH_BOOT_PROJECT_V1_ #
#                    2_T170101\Project\EWARMv5\STM3210C-EVAL\Obj\init.o       #
#                    D:\Express\EXP_CAR_PROJECT\EXP_CAR_ETH_BOOT_PROJECT_V1_2 #
#                    _T170101\Project\EWARMv5\STM3210C-EVAL\Obj\ip.o          #
#                    D:\Express\EXP_CAR_PROJECT\EXP_CAR_ETH_BOOT_PROJECT_V1_2 #
#                    _T170101\Project\EWARMv5\STM3210C-EVAL\Obj\ip_addr.o     #
#                    D:\Express\EXP_CAR_PROJECT\EXP_CAR_ETH_BOOT_PROJECT_V1_2 #
#                    _T170101\Project\EWARMv5\STM3210C-EVAL\Obj\ip_frag.o     #
#                    D:\Express\EXP_CAR_PROJECT\EXP_CAR_ETH_BOOT_PROJECT_V1_2 #
#                    _T170101\Project\EWARMv5\STM3210C-EVAL\Obj\main.o        #
#                    D:\Express\EXP_CAR_PROJECT\EXP_CAR_ETH_BOOT_PROJECT_V1_2 #
#                    _T170101\Project\EWARMv5\STM3210C-EVAL\Obj\mem.o         #
#                    D:\Express\EXP_CAR_PROJECT\EXP_CAR_ETH_BOOT_PROJECT_V1_2 #
#                    _T170101\Project\EWARMv5\STM3210C-EVAL\Obj\memp.o        #
#                    D:\Express\EXP_CAR_PROJECT\EXP_CAR_ETH_BOOT_PROJECT_V1_2 #
#                    _T170101\Project\EWARMv5\STM3210C-EVAL\Obj\misc.o        #
#                    D:\Express\EXP_CAR_PROJECT\EXP_CAR_ETH_BOOT_PROJECT_V1_2 #
#                    _T170101\Project\EWARMv5\STM3210C-EVAL\Obj\netbuf.o      #
#                    D:\Express\EXP_CAR_PROJECT\EXP_CAR_ETH_BOOT_PROJECT_V1_2 #
#                    _T170101\Project\EWARMv5\STM3210C-EVAL\Obj\netconf.o     #
#                    D:\Express\EXP_CAR_PROJECT\EXP_CAR_ETH_BOOT_PROJECT_V1_2 #
#                    _T170101\Project\EWARMv5\STM3210C-EVAL\Obj\netdb.o       #
#                    D:\Express\EXP_CAR_PROJECT\EXP_CAR_ETH_BOOT_PROJECT_V1_2 #
#                    _T170101\Project\EWARMv5\STM3210C-EVAL\Obj\netif.o       #
#                    D:\Express\EXP_CAR_PROJECT\EXP_CAR_ETH_BOOT_PROJECT_V1_2 #
#                    _T170101\Project\EWARMv5\STM3210C-EVAL\Obj\netifapi.o    #
#                    D:\Express\EXP_CAR_PROJECT\EXP_CAR_ETH_BOOT_PROJECT_V1_2 #
#                    _T170101\Project\EWARMv5\STM3210C-EVAL\Obj\pbuf.o        #
#                    D:\Express\EXP_CAR_PROJECT\EXP_CAR_ETH_BOOT_PROJECT_V1_2 #
#                    _T170101\Project\EWARMv5\STM3210C-EVAL\Obj\raw.o         #
#                    D:\Express\EXP_CAR_PROJECT\EXP_CAR_ETH_BOOT_PROJECT_V1_2 #
#                    _T170101\Project\EWARMv5\STM3210C-EVAL\Obj\startup_stm32 #
#                    f10x_cl.o D:\Express\EXP_CAR_PROJECT\EXP_CAR_ETH_BOOT_PR #
#                    OJECT_V1_2_T170101\Project\EWARMv5\STM3210C-EVAL\Obj\sta #
#                    ts.o D:\Express\EXP_CAR_PROJECT\EXP_CAR_ETH_BOOT_PROJECT #
#                    _V1_2_T170101\Project\EWARMv5\STM3210C-EVAL\Obj\stm32_et #
#                    h.o D:\Express\EXP_CAR_PROJECT\EXP_CAR_ETH_BOOT_PROJECT_ #
#                    V1_2_T170101\Project\EWARMv5\STM3210C-EVAL\Obj\stm32f107 #
#                    .o D:\Express\EXP_CAR_PROJECT\EXP_CAR_ETH_BOOT_PROJECT_V #
#                    1_2_T170101\Project\EWARMv5\STM3210C-EVAL\Obj\stm32f10x_ #
#                    adc.o D:\Express\EXP_CAR_PROJECT\EXP_CAR_ETH_BOOT_PROJEC #
#                    T_V1_2_T170101\Project\EWARMv5\STM3210C-EVAL\Obj\stm32f1 #
#                    0x_bkp.o D:\Express\EXP_CAR_PROJECT\EXP_CAR_ETH_BOOT_PRO #
#                    JECT_V1_2_T170101\Project\EWARMv5\STM3210C-EVAL\Obj\stm3 #
#                    2f10x_can.o D:\Express\EXP_CAR_PROJECT\EXP_CAR_ETH_BOOT_ #
#                    PROJECT_V1_2_T170101\Project\EWARMv5\STM3210C-EVAL\Obj\s #
#                    tm32f10x_dma.o D:\Express\EXP_CAR_PROJECT\EXP_CAR_ETH_BO #
#                    OT_PROJECT_V1_2_T170101\Project\EWARMv5\STM3210C-EVAL\Ob #
#                    j\stm32f10x_exti.o D:\Express\EXP_CAR_PROJECT\EXP_CAR_ET #
#                    H_BOOT_PROJECT_V1_2_T170101\Project\EWARMv5\STM3210C-EVA #
#                    L\Obj\stm32f10x_flash.o D:\Express\EXP_CAR_PROJECT\EXP_C #
#                    AR_ETH_BOOT_PROJECT_V1_2_T170101\Project\EWARMv5\STM3210 #
#                    C-EVAL\Obj\stm32f10x_gpio.o                              #
#                    D:\Express\EXP_CAR_PROJECT\EXP_CAR_ETH_BOOT_PROJECT_V1_2 #
#                    _T170101\Project\EWARMv5\STM3210C-EVAL\Obj\stm32f10x_i2c #
#                    .o D:\Express\EXP_CAR_PROJECT\EXP_CAR_ETH_BOOT_PROJECT_V #
#                    1_2_T170101\Project\EWARMv5\STM3210C-EVAL\Obj\stm32f10x_ #
#                    it.o D:\Express\EXP_CAR_PROJECT\EXP_CAR_ETH_BOOT_PROJECT #
#                    _V1_2_T170101\Project\EWARMv5\STM3210C-EVAL\Obj\stm32f10 #
#                    x_pwr.o D:\Express\EXP_CAR_PROJECT\EXP_CAR_ETH_BOOT_PROJ #
#                    ECT_V1_2_T170101\Project\EWARMv5\STM3210C-EVAL\Obj\stm32 #
#                    f10x_rcc.o D:\Express\EXP_CAR_PROJECT\EXP_CAR_ETH_BOOT_P #
#                    ROJECT_V1_2_T170101\Project\EWARMv5\STM3210C-EVAL\Obj\st #
#                    m32f10x_rtc.o D:\Express\EXP_CAR_PROJECT\EXP_CAR_ETH_BOO #
#                    T_PROJECT_V1_2_T170101\Project\EWARMv5\STM3210C-EVAL\Obj #
#                    \stm32f10x_spi.o D:\Express\EXP_CAR_PROJECT\EXP_CAR_ETH_ #
#                    BOOT_PROJECT_V1_2_T170101\Project\EWARMv5\STM3210C-EVAL\ #
#                    Obj\stm32f10x_tim.o D:\Express\EXP_CAR_PROJECT\EXP_CAR_E #
#                    TH_BOOT_PROJECT_V1_2_T170101\Project\EWARMv5\STM3210C-EV #
#                    AL\Obj\stm32f10x_usart.o D:\Express\EXP_CAR_PROJECT\EXP_ #
#                    CAR_ETH_BOOT_PROJECT_V1_2_T170101\Project\EWARMv5\STM321 #
#                    0C-EVAL\Obj\sys.o D:\Express\EXP_CAR_PROJECT\EXP_CAR_ETH #
#                    _BOOT_PROJECT_V1_2_T170101\Project\EWARMv5\STM3210C-EVAL #
#                    \Obj\system_stm32f10x.o D:\Express\EXP_CAR_PROJECT\EXP_C #
#                    AR_ETH_BOOT_PROJECT_V1_2_T170101\Project\EWARMv5\STM3210 #
#                    C-EVAL\Obj\tcp.o D:\Express\EXP_CAR_PROJECT\EXP_CAR_ETH_ #
#                    BOOT_PROJECT_V1_2_T170101\Project\EWARMv5\STM3210C-EVAL\ #
#                    Obj\tcp_in.o D:\Express\EXP_CAR_PROJECT\EXP_CAR_ETH_BOOT #
#                    _PROJECT_V1_2_T170101\Project\EWARMv5\STM3210C-EVAL\Obj\ #
#                    tcp_out.o D:\Express\EXP_CAR_PROJECT\EXP_CAR_ETH_BOOT_PR #
#                    OJECT_V1_2_T170101\Project\EWARMv5\STM3210C-EVAL\Obj\tcp #
#                    ip.o D:\Express\EXP_CAR_PROJECT\EXP_CAR_ETH_BOOT_PROJECT #
#                    _V1_2_T170101\Project\EWARMv5\STM3210C-EVAL\Obj\tftpserv #
#                    er.o D:\Express\EXP_CAR_PROJECT\EXP_CAR_ETH_BOOT_PROJECT #
#                    _V1_2_T170101\Project\EWARMv5\STM3210C-EVAL\Obj\tftputil #
#                    s.o D:\Express\EXP_CAR_PROJECT\EXP_CAR_ETH_BOOT_PROJECT_ #
#                    V1_2_T170101\Project\EWARMv5\STM3210C-EVAL\Obj\uart.o    #
#                    D:\Express\EXP_CAR_PROJECT\EXP_CAR_ETH_BOOT_PROJECT_V1_2 #
#                    _T170101\Project\EWARMv5\STM3210C-EVAL\Obj\udp.o         #
#                    D:\Express\EXP_CAR_PROJECT\EXP_CAR_ETH_BOOT_PROJECT_V1_2 #
#                    _T170101\Project\EWARMv5\STM3210C-EVAL\Obj\udpclient.o   #
#                    -o D:\Express\EXP_CAR_PROJECT\EXP_CAR_ETH_BOOT_PROJECT_V #
#                    1_2_T170101\Project\EWARMv5\STM3210C-EVAL\Exe\STM3210C-E #
#                    VAL.out --map D:\Express\EXP_CAR_PROJECT\EXP_CAR_ETH_BOO #
#                    T_PROJECT_V1_2_T170101\Project\EWARMv5\STM3210C-EVAL\Lis #
#                    t\STM3210C-EVAL.map --config                             #
#                    D:\Express\EXP_CAR_PROJECT\EXP_CAR_ETH_BOOT_PROJECT_V1_2 #
#                    _T170101\Project\EWARMv5\STM32F10x_FLASH.icf             #
#                    --semihosting --entry __iar_program_start                #
#                                                                             #
#                                                                             #
###############################################################################

*******************************************************************************
*** RUNTIME MODEL ATTRIBUTES
***

CppFlavor       = *
__SystemLibrary = DLib


*******************************************************************************
*** PLACEMENT SUMMARY
***

"A1":  place at 0x08000000 { ro section .intvec };
"P1":  place in [from 0x08000000 to 0x0803ffff] { ro };
"P2":  place in [from 0x20000000 to 0x2000ffff] { rw, block CSTACK, block HEAP };

  Section             Kind        Address    Size  Object
  -------             ----        -------    ----  ------
"A1":                                       0x150
  .intvec             ro code  0x08000000   0x150  startup_stm32f10x_cl.o [1]
                             - 0x08000150   0x150

"P1":                                      0x7470
  .text               ro code  0x08000150  0x12ec  dlmalloc.o [3]
  .text               ro code  0x0800143c     0xa  abort.o [3]
  .text               ro code  0x08001446    0x2e  copy_init3.o [5]
  .text               ro code  0x08001474    0x28  xgetmemchunk.o [3]
  .text               ro code  0x0800149c    0xb4  xsyslock.o [3]
  .text               ro code  0x08001550    0x14  exit.o [6]
  .text               ro code  0x08001564     0x4  xmtx2.o [3]
  .text               ro code  0x08001568     0x8  xmtx.o [3]
  .text               ro code  0x08001570    0x30  iarttio.o [6]
  .text               ro code  0x080015a0     0x8  XShttio.o [3]
  .text               ro code  0x080015a8  0x1076  xprintffull.o [3]
  .text               ro code  0x0800261e    0x20  xmbtowc.o [3]
  .text               ro code  0x0800263e    0x22  zero_init3.o [5]
  .text               ro code  0x08002660    0x16  strchr.o [5]
  .text               ro code  0x08002676     0xa  xsprout.o [3]
  .text               ro code  0x08002680    0x58  memchr.o [5]
  .text               ro code  0x080026d8    0x36  strlen.o [5]
  .text               ro code  0x0800270e     0xa  xmbcurmax.o [3]
  .text               ro code  0x08002718    0x1a  xwctomb.o [3]
  .text               ro code  0x08002734    0x70  ABImemcpy.o [5]
  .text               ro code  0x080027a4   0x12e  I64DivMod.o [5]
  .text               ro code  0x080028d4    0x44  xdnorm.o [4]
  .text               ro code  0x08002918    0x2e  DblCmpLe.o [4]
  .text               ro code  0x08002948    0x2e  DblCmpGe.o [4]
  .text               ro code  0x08002978   0x118  xdscale.o [4]
  .text               ro code  0x08002a90    0x56  DblToI32.o [4]
  .text               ro code  0x08002ae8    0x2e  I32ToDbl.o [4]
  .text               ro code  0x08002b18   0x17e  DblSub.o [4]
  .text               ro code  0x08002c98   0x1a2  DblMul.o [4]
  .text               ro code  0x08002e3c   0x246  DblDiv.o [4]
  .text               ro code  0x08003084    0x6c  localeconv.o [3]
  .text               ro code  0x080030f0     0xe  div.o [3]
  .text               ro code  0x08003100    0x14  setlocale.o [3]
  .text               ro code  0x08003114    0x5c  xencoding_sb.o [3]
  .text               ro code  0x08003170     0x2  I64DivZer.o [5]
  .text               ro code  0x08003174    0xe6  DblAdd.o [4]
  .text               ro code  0x0800325a     0x2  xtls.o [3]
  .text               ro code  0x0800325c   0x64c  etharp.o [1]
  .text               ro code  0x080038a8   0x38a  pbuf.o [1]
  .text               ro code  0x08003c34    0x8c  memp.o [1]
  .text               ro code  0x08003cc0    0x40  ip_addr.o [1]
  .text               ro code  0x08003d00    0x26  inet.o [1]
  .text               ro code  0x08003d28   0x288  ip.o [1]
  .text               ro code  0x08003fb0   0x1d8  mem.o [1]
  .text               ro code  0x08004188    0xae  netif.o [1]
  .text               ro code  0x08004238   0x48c  ip_frag.o [1]
  .text               ro code  0x080046c4    0x60  raw.o [1]
  .text               ro code  0x08004724   0x332  udp.o [1]
  .text               ro code  0x08004a56   0x18c  icmp.o [1]
  .text               ro code  0x08004be4     0x6  ABImemclr4.o [5]
  .text               ro code  0x08004bea    0x9a  inet_chksum.o [1]
  .text               ro code  0x08004c84    0x38  ABImemset48.o [5]
  .text               ro code  0x08004cbc   0x5c0  uart.o [1]
  .text               ro code  0x0800527c   0x138  stm32f10x_gpio.o [1]
  .text               ro code  0x080053b4   0x11c  stm32f10x_usart.o [1]
  .text               ro code  0x080054d0   0x18c  stm32f10x_dma.o [1]
  .text               ro code  0x0800565c    0x34  sprintf.o [3]
  .text               ro code  0x08005690   0x1dc  udpclient.o [1]
  .text               ro code  0x0800586c   0x3f0  stm32f107.o [1]
  .text               ro code  0x08005c5c   0x136  stm32f10x_flash.o [1]
  .text               ro code  0x08005d94   0x11c  stm32f10x_rcc.o [1]
  .text               ro code  0x08005eb0   0x168  fun.o [1]
  .text               ro code  0x08006018   0x114  system_stm32f10x.o [1]
  .text               ro code  0x0800612c     0xc  stm32f10x_pwr.o [1]
  .text               ro code  0x08006138   0x568  stm32_eth.o [1]
  .text               ro code  0x080066a0    0x8c  misc.o [1]
  .text               ro code  0x0800672c   0x534  tftpserver.o [1]
  .text               ro code  0x08006c60    0x54  tftputils.o [1]
  .text               ro code  0x08006cb4    0x44  strcpy.o [5]
  .text               ro code  0x08006cf8   0x24c  main.o [1]
  .text               ro code  0x08006f44     0x8  core_cm3.o [1]
  .text               ro code  0x08006f4c    0x1c  stm32f10x_bkp.o [1]
  .text               ro code  0x08006f68    0xa0  netconf.o [1]
  .text               ro code  0x08007008   0x224  ethernetif.o [1]
  .text               ro code  0x0800722c   0x11e  stm32f10x_it.o [1]
  .text               ro code  0x0800734c    0x1c  stm32f10x_tim.o [1]
  .text               ro code  0x08007368    0x2c  data_init3.o [5]
  .iar.init_table     const    0x08007394    0x24  - Linker created -
  .text               ro code  0x080073b8    0x16  cmain.o [5]
  .text               ro code  0x080073ce     0x4  low_level_init.o [3]
  .text               ro code  0x080073d2     0x8  exit.o [3]
  .text               ro code  0x080073dc     0xe  cexit.o [5]
  .text               ro code  0x080073ea     0xc  cstartup_M.o [5]
  .text               ro code  0x080073f6     0x4  startup_stm32f10x_cl.o [1]
  .text               ro code  0x080073fa     0x4  startup_stm32f10x_cl.o [1]
  .text               ro code  0x080073fe     0x4  startup_stm32f10x_cl.o [1]
  .text               ro code  0x08007402     0x4  startup_stm32f10x_cl.o [1]
  .text               ro code  0x08007406     0x4  startup_stm32f10x_cl.o [1]
  .text               ro code  0x0800740a     0x4  startup_stm32f10x_cl.o [1]
  .text               ro code  0x0800740e     0x4  startup_stm32f10x_cl.o [1]
  .text               ro code  0x08007412     0x4  startup_stm32f10x_cl.o [1]
  .text               ro code  0x08007416     0x4  startup_stm32f10x_cl.o [1]
  .text               ro code  0x0800741a     0x4  startup_stm32f10x_cl.o [1]
  .text               ro code  0x0800741e     0x4  startup_stm32f10x_cl.o [1]
  .text               ro code  0x08007422     0x4  startup_stm32f10x_cl.o [1]
  .text               ro code  0x08007426     0x4  startup_stm32f10x_cl.o [1]
  .text               ro code  0x0800742a     0x4  startup_stm32f10x_cl.o [1]
  .text               ro code  0x0800742e     0x4  startup_stm32f10x_cl.o [1]
  .text               ro code  0x08007432     0x4  startup_stm32f10x_cl.o [1]
  .text               ro code  0x08007436     0x4  startup_stm32f10x_cl.o [1]
  .text               ro code  0x0800743a     0x4  startup_stm32f10x_cl.o [1]
  .text               ro code  0x0800743e     0x4  startup_stm32f10x_cl.o [1]
  .text               ro code  0x08007442     0x4  startup_stm32f10x_cl.o [1]
  .text               ro code  0x08007446     0x4  startup_stm32f10x_cl.o [1]
  .text               ro code  0x0800744a     0x4  startup_stm32f10x_cl.o [1]
  .text               ro code  0x0800744e     0x4  startup_stm32f10x_cl.o [1]
  .text               ro code  0x08007452     0x4  startup_stm32f10x_cl.o [1]
  .text               ro code  0x08007456     0x4  startup_stm32f10x_cl.o [1]
  .text               ro code  0x0800745a     0x4  startup_stm32f10x_cl.o [1]
  .text               ro code  0x0800745e     0x4  startup_stm32f10x_cl.o [1]
  .text               ro code  0x08007462     0x4  startup_stm32f10x_cl.o [1]
  .text               ro code  0x08007466     0x4  startup_stm32f10x_cl.o [1]
  .text               ro code  0x0800746a     0x4  startup_stm32f10x_cl.o [1]
  .text               ro code  0x0800746e     0x4  startup_stm32f10x_cl.o [1]
  .text               ro code  0x08007472     0x4  startup_stm32f10x_cl.o [1]
  .text               ro code  0x08007476     0x4  startup_stm32f10x_cl.o [1]
  .text               ro code  0x0800747a     0x4  startup_stm32f10x_cl.o [1]
  .text               ro code  0x0800747e     0x4  startup_stm32f10x_cl.o [1]
  .text               ro code  0x08007482     0x4  startup_stm32f10x_cl.o [1]
  .text               ro code  0x08007486     0x4  startup_stm32f10x_cl.o [1]
  .text               ro code  0x0800748a     0x4  startup_stm32f10x_cl.o [1]
  .text               ro code  0x0800748e     0x4  startup_stm32f10x_cl.o [1]
  .text               ro code  0x08007492     0x4  startup_stm32f10x_cl.o [1]
  .text               ro code  0x08007496     0x4  startup_stm32f10x_cl.o [1]
  .text               ro code  0x0800749a     0x4  startup_stm32f10x_cl.o [1]
  .text               ro code  0x0800749e     0x4  startup_stm32f10x_cl.o [1]
  .text               ro code  0x080074a2     0x4  startup_stm32f10x_cl.o [1]
  .text               ro code  0x080074a6     0x4  startup_stm32f10x_cl.o [1]
  .text               ro code  0x080074aa     0x4  startup_stm32f10x_cl.o [1]
  .text               ro code  0x080074ae     0x4  startup_stm32f10x_cl.o [1]
  .text               ro code  0x080074b2     0x4  startup_stm32f10x_cl.o [1]
  .text               ro code  0x080074b6     0x4  startup_stm32f10x_cl.o [1]
  .text               ro code  0x080074ba     0x4  startup_stm32f10x_cl.o [1]
  .text               ro code  0x080074be     0x4  startup_stm32f10x_cl.o [1]
  .text               ro code  0x080074c2     0x4  startup_stm32f10x_cl.o [1]
  .text               ro code  0x080074c6     0x4  startup_stm32f10x_cl.o [1]
  .text               ro code  0x080074ca     0x4  startup_stm32f10x_cl.o [1]
  .text               ro code  0x080074ce     0x4  startup_stm32f10x_cl.o [1]
  .text               ro code  0x080074d2     0x4  startup_stm32f10x_cl.o [1]
  .text               ro code  0x080074d6     0x4  startup_stm32f10x_cl.o [1]
  .text               ro code  0x080074da     0x4  startup_stm32f10x_cl.o [1]
  .text               ro code  0x080074de     0x4  startup_stm32f10x_cl.o [1]
  .text               ro code  0x080074e2     0x4  startup_stm32f10x_cl.o [1]
  .text               ro code  0x080074e6     0x4  startup_stm32f10x_cl.o [1]
  .text               ro code  0x080074ea     0x4  startup_stm32f10x_cl.o [1]
  .text               ro code  0x080074ee     0x4  startup_stm32f10x_cl.o [1]
  .text               ro code  0x080074f2     0x4  startup_stm32f10x_cl.o [1]
  .text               ro code  0x080074f6     0x4  startup_stm32f10x_cl.o [1]
  .text               ro code  0x080074fa     0x4  startup_stm32f10x_cl.o [1]
  .text               ro code  0x080074fe     0x4  startup_stm32f10x_cl.o [1]
  .text               ro code  0x08007502     0x4  startup_stm32f10x_cl.o [1]
  .text               ro code  0x08007506     0x4  startup_stm32f10x_cl.o [1]
  .text               ro code  0x0800750a     0x4  startup_stm32f10x_cl.o [1]
  .text               ro code  0x08007510     0x0  cstart_clearlocks.o [5]
  Initializer bytes   ro data  0x08007510    0xb0  <for P2 s0>
                             - 0x080075c0  0x7470

"P2", part 1 of 3:                           0xb0
  P2 s0                        0x20000000    0xb0  <Init block>
    __DLIB_PERTHREAD  inited   0x20000000    0x50  localeconv.o [3]
    .data             inited   0x20000050    0x24  tftpserver.o [1]
    .data             inited   0x20000074    0x14  stm32f10x_rcc.o [1]
    .data             inited   0x20000088    0x14  tftpserver.o [1]
    .data             inited   0x2000009c     0xc  main.o [1]
    .data             inited   0x200000a8     0x8  XShttio.o [3]
                             - 0x200000b0    0xb0

"P2", part 2 of 3:                         0xc400
  .bss                zero     0x200000b0  0x5020  mem.o [1]
  .bss                zero     0x200050d0  0x3eb4  memp.o [1]
  .bss                zero     0x20008f84  0x2408  ethernetif.o [1]
  .bss                zero     0x2000b38c   0x5e0  ip_frag.o [1]
  .bss                zero     0x2000b96c   0x258  uart.o [1]
  .bss                zero     0x2000bbc4   0x258  uart.o [1]
  .bss                zero     0x2000be1c   0x1d4  dlmalloc.o [3]
  .bss                zero     0x2000bff0    0xe0  udpclient.o [1]
  .bss                zero     0x2000c0d0    0xc8  etharp.o [1]
  .bss                zero     0x2000c198    0xc8  fun.o [1]
  .bss                zero     0x2000c260    0xc8  fun.o [1]
  __DLIB_PERTHREAD    zero     0x2000c328    0x74  setlocale.o [3]
  .bss                zero     0x2000c39c    0x38  xsyslock.o [3]
  .bss                zero     0x2000c3d4    0x30  netconf.o [1]
  .bss                zero     0x2000c404    0x18  fun.o [1]
  .bss                zero     0x2000c41c    0x18  dlmalloc.o [3]
  .bss                zero     0x2000c434    0x14  uart.o [1]
  .bss                zero     0x2000c448     0xc  fun.o [1]
  .bss                zero     0x2000c454     0xc  netif.o [1]
  .bss                zero     0x2000c460     0x8  ip.o [1]
  .bss                zero     0x2000c468     0x8  ip_frag.o [1]
  .bss                zero     0x2000c470     0x8  main.o [1]
  .bss                zero     0x2000c478     0x8  stm32_eth.o [1]
  .bss                zero     0x2000c480     0x8  stm32_eth.o [1]
  .bss                zero     0x2000c488     0x4  main.o [1]
  .bss                zero     0x2000c48c     0x4  netconf.o [1]
  .bss                zero     0x2000c490     0x4  raw.o [1]
  .bss                zero     0x2000c494     0x4  stm32f107.o [1]
  .bss                zero     0x2000c498     0x4  tftpserver.o [1]
  .bss                zero     0x2000c49c     0x4  udp.o [1]
  .bss                zero     0x2000c4a0     0x4  xgetmemchunk.o [3]
  .bss                zero     0x2000c4a4     0x2  fun.o [1]
  .bss                zero     0x2000c4a6     0x2  ip.o [1]
  .bss                zero     0x2000c4a8     0x1  etharp.o [1]
                             - 0x2000c4a9  0xc3f9

"P2", part 3 of 3:                         0x1100
  CSTACK                       0x2000c4b0  0x1000  <Block>
    CSTACK            uninit   0x2000c4b0  0x1000  <Block tail>
  HEAP                         0x2000d4b0   0x100  <Block>
    HEAP              uninit   0x2000d4b0   0x100  <Block tail>
                             - 0x2000d5b0  0x1100


*******************************************************************************
*** INIT TABLE
***

          Address     Size
          -------     ----
Zero (__iar_zero_init3)
    1 destination range, total size 0xc3f9:
          0x200000b0  0xc3f9

Copy (__iar_copy_init3)
    1 source range, total size 0xb0:
          0x08007510    0xb0
    1 destination range, total size 0xb0:
          0x20000000    0xb0


*******************************************************************************
*** MODULE SUMMARY
***

    Module                  ro code  ro data  rw data
    ------                  -------  -------  -------
D:\Express\EXP_CAR_PROJECT\EXP_CAR_ETH_BOOT_PROJECT_V1_2_T170101\Project\EWARMv5\STM3210C-EVAL\Obj: [1]
    core_cm3.o                    8
    etharp.o                  1 612               201
    ethernetif.o                548             9 224
    fun.o                       360               438
    icmp.o                      396
    inet.o                       38
    inet_chksum.o               154
    ip.o                        648                10
    ip_addr.o                    64
    ip_frag.o                 1 164             1 512
    main.o                      588       12       24
    mem.o                       472            20 512
    memp.o                      140            16 052
    misc.o                      140
    netconf.o                   160                52
    netif.o                     174                12
    pbuf.o                      906
    raw.o                        96                 4
    startup_stm32f10x_cl.o      616
    stm32_eth.o               1 384                16
    stm32f107.o               1 008                 4
    stm32f10x_bkp.o              28
    stm32f10x_dma.o             396
    stm32f10x_flash.o           310
    stm32f10x_gpio.o            312
    stm32f10x_it.o              286
    stm32f10x_pwr.o              12
    stm32f10x_rcc.o             284       20       20
    stm32f10x_tim.o              28
    stm32f10x_usart.o           284
    system_stm32f10x.o          276
    tftpserver.o              1 332       56       60
    tftputils.o                  84
    uart.o                    1 472             1 220
    udp.o                       818                 4
    udpclient.o                 476               224
    -------------------------------------------------
    Total:                   17 074       88   49 589

command line: [2]
    -------------------------------------------------
    Total:

dl7M_tlf.a: [3]
    XShttio.o                     8        8        8
    abort.o                      10
    div.o                        14
    dlmalloc.o                4 844               492
    exit.o                        8
    localeconv.o                108       80       80
    low_level_init.o              4
    setlocale.o                  20               116
    sprintf.o                    52
    xencoding_sb.o               92
    xgetmemchunk.o               40                 4
    xmbcurmax.o                  10
    xmbtowc.o                    32
    xmtx.o                        8
    xmtx2.o                       4
    xprintffull.o             4 214
    xsprout.o                    10
    xsyslock.o                  180                56
    xtls.o                        2
    xwctomb.o                    26
    -------------------------------------------------
    Total:                    9 686       88      756

m7M_tl.a: [4]
    DblAdd.o                    230
    DblCmpGe.o                   46
    DblCmpLe.o                   46
    DblDiv.o                    582
    DblMul.o                    418
    DblSub.o                    382
    DblToI32.o                   86
    I32ToDbl.o                   46
    xdnorm.o                     68
    xdscale.o                   280
    -------------------------------------------------
    Total:                    2 184

rt7M_tl.a: [5]
    ABImemclr4.o                  6
    ABImemcpy.o                 112
    ABImemset48.o                56
    I64DivMod.o                 302
    I64DivZer.o                   2
    cexit.o                      14
    cmain.o                      22
    copy_init3.o                 46
    cstart_clearlocks.o
    cstartup_M.o                 12
    data_init3.o                 44
    memchr.o                     88
    strchr.o                     22
    strcpy.o                     68
    strlen.o                     54
    zero_init3.o                 34
    -------------------------------------------------
    Total:                      882

shb_l.a: [6]
    exit.o                       20
    iarttio.o                    48
    -------------------------------------------------
    Total:                       68

    Gaps                         38
    Linker created                        36    4 352
-----------------------------------------------------
    Grand Total:             29 932      212   54 697


*******************************************************************************
*** ENTRY LIST
***

Entry                      Address    Size  Type      Object
-----                      -------    ----  ----      ------
?main                   0x080073b9          Code  Gb  cmain.o [5]
ADC1_2_IRQHandler       0x08007463          Code  Wk  startup_stm32f10x_cl.o [1]
ADCPrescTable           0x20000084     0x4  Data  Lc  stm32f10x_rcc.o [1]
APBAHBPrescTable        0x20000074    0x10  Data  Lc  stm32f10x_rcc.o [1]
ARPTimer                0x2000c48c     0x4  Data  Gb  netconf.o [1]
AddSendMsgToQueue       0x08005f0b     0x6  Code  Gb  fun.o [1]
BKP_ReadBackupRegister  0x08006f4d    0x18  Code  Gb  stm32f10x_bkp.o [1]
BusFault_Handler        0x08007233     0x2  Code  Gb  stm32f10x_it.o [1]
CAN1_RX0_IRQHandler     0x0800746b          Code  Wk  startup_stm32f10x_cl.o [1]
CAN1_RX1_IRQHandler     0x0800746f          Code  Wk  startup_stm32f10x_cl.o [1]
CAN1_SCE_IRQHandler     0x08007473          Code  Wk  startup_stm32f10x_cl.o [1]
CAN1_TX_IRQHandler      0x08007467          Code  Wk  startup_stm32f10x_cl.o [1]
CAN2_RX0_IRQHandler     0x080074ff          Code  Wk  startup_stm32f10x_cl.o [1]
CAN2_RX1_IRQHandler     0x08007503          Code  Wk  startup_stm32f10x_cl.o [1]
CAN2_SCE_IRQHandler     0x08007507          Code  Wk  startup_stm32f10x_cl.o [1]
CAN2_TX_IRQHandler      0x080074fb          Code  Wk  startup_stm32f10x_cl.o [1]
CSTACK$$Base            0x2000c4b0           --   Gb  - Linker created -
CSTACK$$Limit           0x2000d4b0           --   Gb  - Linker created -
DMA1_Channel1_IRQHandler
                        0x08007447          Code  Wk  startup_stm32f10x_cl.o [1]
DMA1_Channel2_IRQHandler
                        0x0800744b          Code  Wk  startup_stm32f10x_cl.o [1]
DMA1_Channel3_IRQHandler
                        0x0800744f          Code  Wk  startup_stm32f10x_cl.o [1]
DMA1_Channel4_IRQHandler
                        0x08007453          Code  Wk  startup_stm32f10x_cl.o [1]
DMA1_Channel5_IRQHandler
                        0x08007457          Code  Wk  startup_stm32f10x_cl.o [1]
DMA1_Channel6_IRQHandler
                        0x0800745b          Code  Wk  startup_stm32f10x_cl.o [1]
DMA1_Channel7_IRQHandler
                        0x0800745f          Code  Wk  startup_stm32f10x_cl.o [1]
DMA2_Channel1_IRQHandler
                        0x080074df          Code  Wk  startup_stm32f10x_cl.o [1]
DMA2_Channel2_IRQHandler
                        0x080074e3          Code  Wk  startup_stm32f10x_cl.o [1]
DMA2_Channel3_IRQHandler
                        0x080074e7          Code  Wk  startup_stm32f10x_cl.o [1]
DMA2_Channel4_IRQHandler
                        0x080074eb          Code  Wk  startup_stm32f10x_cl.o [1]
DMA2_Channel5_IRQHandler
                        0x080072df    0x2e  Code  Gb  stm32f10x_it.o [1]
DMAPTPRxDescToGet       0x2000c484     0x4  Data  Gb  stm32_eth.o [1]
DMAPTPTxDescToSet       0x2000c47c     0x4  Data  Gb  stm32_eth.o [1]
DMARxDescToGet          0x2000c480     0x4  Data  Gb  stm32_eth.o [1]
DMARxDscrTab            0x20008f8c    0x40  Data  Gb  ethernetif.o [1]
DMATxDescToSet          0x2000c478     0x4  Data  Gb  stm32_eth.o [1]
DMATxDscrTab            0x20008fcc    0x20  Data  Gb  ethernetif.o [1]
DMA_ClearFlag           0x0800560b     0xc  Code  Gb  stm32f10x_dma.o [1]
DMA_Cmd                 0x080055c9    0x14  Code  Gb  stm32f10x_dma.o [1]
DMA_Configuration       0x080058bb    0x68  Code  Gb  stm32f107.o [1]
DMA_DeInit              0x080054d1    0xc2  Code  Gb  stm32f10x_dma.o [1]
DMA_GetCurrDataCounter  0x080055f1     0x6  Code  Gb  stm32f10x_dma.o [1]
DMA_GetFlagStatus       0x080055f7    0x14  Code  Gb  stm32f10x_dma.o [1]
DMA_ITConfig            0x080055dd    0x10  Code  Gb  stm32f10x_dma.o [1]
DMA_Init                0x08005593    0x36  Code  Gb  stm32f10x_dma.o [1]
DMA_SetCurrDataCounter  0x080055ed     0x4  Code  Gb  stm32f10x_dma.o [1]
DebugMon_Handler        0x08007239     0x2  Code  Gb  stm32f10x_it.o [1]
ETH_DMAClearITPendingBit
                        0x080065e7          Code  Gb  stm32_eth.o [1]
ETH_DMAITConfig         0x0800661b    0x14  Code  Gb  stm32_eth.o [1]
ETH_DMAReceptionCmd     0x08006605    0x16  Code  Gb  stm32_eth.o [1]
ETH_DMARxDescChainInit  0x08006575    0x46  Code  Gb  stm32_eth.o [1]
ETH_DMARxDescReceiveITConfig
                        0x080065bb    0x12  Code  Gb  stm32_eth.o [1]
ETH_DMATransmissionCmd  0x080065ef    0x16  Code  Gb  stm32_eth.o [1]
ETH_DMATxDescChainInit  0x0800652b    0x40  Code  Gb  stm32_eth.o [1]
ETH_DMATxDescChecksumInsertionConfig
                        0x08006573     0x2  Code  Gb  stm32_eth.o [1]
ETH_DMATxDescFrameSegmentConfig
                        0x0800656b          Code  Gb  stm32_eth.o [1]
ETH_DeInit              0x08006139    0x1a  Code  Gb  stm32_eth.o [1]
ETH_Delay               0x08006685    0x1c  Code  Lc  stm32_eth.o [1]
ETH_GetRxPktSize        0x0800641f    0x1e  Code  Gb  stm32_eth.o [1]
ETH_GetSoftwareResetStatus
                        0x080065db     0x4  Code  Gb  stm32_eth.o [1]
ETH_IRQHandler          0x08007329    0x22  Code  Gb  stm32f10x_it.o [1]
ETH_Init                0x08006153   0x1f4  Code  Gb  stm32_eth.o [1]
ETH_MACAddressConfig    0x08006501    0x2a  Code  Gb  stm32_eth.o [1]
ETH_MACReceptionCmd     0x080064eb    0x16  Code  Gb  stm32_eth.o [1]
ETH_MACTransmissionCmd  0x080064d5    0x16  Code  Gb  stm32_eth.o [1]
ETH_ReadPHYRegister     0x0800643d    0x4c  Code  Gb  stm32_eth.o [1]
ETH_RxPkt_ChainMode     0x08007189    0x54  Code  Gb  ethernetif.o [1]
ETH_SoftwareReset       0x080065cd     0x4  Code  Gb  stm32_eth.o [1]
ETH_Start               0x080063f7    0x28  Code  Gb  stm32_eth.o [1]
ETH_StructInit          0x08006353    0xa4  Code  Gb  stm32_eth.o [1]
ETH_TxPkt_ChainMode     0x080071dd    0x34  Code  Gb  ethernetif.o [1]
ETH_WKUP_IRQHandler     0x080074f7          Code  Wk  startup_stm32f10x_cl.o [1]
ETH_WritePHYRegister    0x08006489    0x4c  Code  Gb  stm32_eth.o [1]
EXTI0_IRQHandler        0x08007433          Code  Wk  startup_stm32f10x_cl.o [1]
EXTI15_10_IRQHandler    0x080074bb          Code  Wk  startup_stm32f10x_cl.o [1]
EXTI1_IRQHandler        0x08007437          Code  Wk  startup_stm32f10x_cl.o [1]
EXTI2_IRQHandler        0x0800743b          Code  Wk  startup_stm32f10x_cl.o [1]
EXTI3_IRQHandler        0x0800743f          Code  Wk  startup_stm32f10x_cl.o [1]
EXTI4_IRQHandler        0x08007443          Code  Wk  startup_stm32f10x_cl.o [1]
EXTI9_5_IRQHandler      0x08007477          Code  Wk  startup_stm32f10x_cl.o [1]
EraseCounter            0x20000090     0x4  Data  Gb  tftpserver.o [1]
EthInitStatus           0x2000c494     0x4  Data  Gb  stm32f107.o [1]
Ethernet_Configuration  0x080059b1    0x90  Code  Gb  stm32f107.o [1]
FLASHStatus             0x20000088     0x1  Data  Gb  tftpserver.o [1]
FLASH_ErasePage         0x08005c75    0x3c  Code  Gb  stm32f10x_flash.o [1]
FLASH_GetStatus         0x08005d27    0x24  Code  Gb  stm32f10x_flash.o [1]
FLASH_IRQHandler        0x0800742b          Code  Wk  startup_stm32f10x_cl.o [1]
FLASH_Lock              0x08005c69     0xc  Code  Gb  stm32f10x_flash.o [1]
FLASH_PagesMask         0x08005c4d    0x10  Code  Gb  stm32f107.o [1]
FLASH_ProgramHalfWord   0x08005cf3    0x2e  Code  Gb  stm32f10x_flash.o [1]
FLASH_ProgramWord       0x08005cb1    0x42  Code  Gb  stm32f10x_flash.o [1]
FLASH_Unlock            0x08005c5d     0xc  Code  Gb  stm32f10x_flash.o [1]
FLASH_WaitForLastOperation
                        0x08005d61    0x32  Code  Gb  stm32f10x_flash.o [1]
FlashDestination        0x2000008c     0x4  Data  Gb  tftpserver.o [1]
GPIO_Configuration      0x08005a41    0xf0  Code  Gb  stm32f107.o [1]
GPIO_ETH_MediaInterfaceConfig
                        0x080053a5     0x6  Code  Gb  stm32f10x_gpio.o [1]
GPIO_Init               0x0800527d    0xbe  Code  Gb  stm32f10x_gpio.o [1]
GPIO_PinRemapConfig     0x0800535f    0x46  Code  Gb  stm32f10x_gpio.o [1]
GPIO_ReadInputDataBit   0x0800533b     0xe  Code  Gb  stm32f10x_gpio.o [1]
GPIO_ReadOutputDataBit  0x08005349     0xe  Code  Gb  stm32f10x_gpio.o [1]
GPIO_ResetBits          0x0800535b     0x4  Code  Gb  stm32f10x_gpio.o [1]
GPIO_SetBits            0x08005357     0x4  Code  Gb  stm32f10x_gpio.o [1]
HEAP$$Base              0x2000d4b0           --   Gb  - Linker created -
HEAP$$Limit             0x2000d5b0           --   Gb  - Linker created -
HardFault_Handler       0x0800722f     0x2  Code  Gb  stm32f10x_it.o [1]
I2C1_ER_IRQHandler      0x0800749b          Code  Wk  startup_stm32f10x_cl.o [1]
I2C1_EV_IRQHandler      0x08007497          Code  Wk  startup_stm32f10x_cl.o [1]
I2C2_ER_IRQHandler      0x080074a3          Code  Wk  startup_stm32f10x_cl.o [1]
I2C2_EV_IRQHandler      0x0800749f          Code  Wk  startup_stm32f10x_cl.o [1]
InitSendMsgQueue        0x08005f05     0x6  Code  Gb  fun.o [1]
JumpAddress             0x2000c474     0x4  Data  Gb  main.o [1]
Jump_To_Application     0x2000c470     0x4  Data  Gb  main.o [1]
Jump_To_User_App        0x08006dc9    0x26  Code  Gb  main.o [1]
LocalTime               0x200000a0     0x4  Data  Gb  main.o [1]
LwIP_Init               0x08006f69    0x64  Code  Gb  netconf.o [1]
LwIP_Periodic_Handle    0x08006fd3    0x1c  Code  Gb  netconf.o [1]
LwIP_Pkt_Handle         0x08006fcd     0x6  Code  Gb  netconf.o [1]
MACaddr                 0x20008f84     0x8  Data  Gb  ethernetif.o [1]
MemManage_Handler       0x08007231     0x2  Code  Gb  stm32f10x_it.o [1]
NMI_Handler             0x0800722d     0x2  Code  Gb  stm32f10x_it.o [1]
NVIC_Configuration      0x08005bf3    0x40  Code  Gb  stm32f107.o [1]
NVIC_Init               0x080066ab    0x58  Code  Gb  misc.o [1]
NVIC_PriorityGroupConfig
                        0x080066a1     0xa  Code  Gb  misc.o [1]
NVIC_SetVectorTable     0x08006703     0xc  Code  Gb  misc.o [1]
NbrOfPage               0x20000094     0x4  Data  Gb  tftpserver.o [1]
OTG_FS_IRQHandler       0x0800750b          Code  Wk  startup_stm32f10x_cl.o [1]
OTG_FS_WKUP_IRQHandler  0x080074c3          Code  Wk  startup_stm32f10x_cl.o [1]
PVD_IRQHandler          0x0800741f          Code  Wk  startup_stm32f10x_cl.o [1]
PWR_BackupAccessCmd     0x0800612d     0x6  Code  Gb  stm32f10x_pwr.o [1]
PageSize                0x2000008a     0x2  Data  Gb  tftpserver.o [1]
PendSV_Handler          0x0800723b     0x2  Code  Gb  stm32f10x_it.o [1]
Programm_Completed_Success
                        0x20000089     0x1  Data  Gb  tftpserver.o [1]
RCC_AHBPeriphClockCmd   0x08005e3b    0x12  Code  Gb  stm32f10x_rcc.o [1]
RCC_AHBPeriphResetCmd   0x08005e71    0x12  Code  Gb  stm32f10x_rcc.o [1]
RCC_APB1PeriphClockCmd  0x08005e5f    0x12  Code  Gb  stm32f10x_rcc.o [1]
RCC_APB2PeriphClockCmd  0x08005e4d    0x12  Code  Gb  stm32f10x_rcc.o [1]
RCC_GetClocksFreq       0x08005d95    0xa6  Code  Gb  stm32f10x_rcc.o [1]
RCC_IRQHandler          0x0800742f          Code  Wk  startup_stm32f10x_cl.o [1]
RCC_MCOConfig           0x08005e83     0x6  Code  Gb  stm32f10x_rcc.o [1]
RTCAlarm_IRQHandler     0x080074bf          Code  Wk  startup_stm32f10x_cl.o [1]
RTC_IRQHandler          0x08007427          Code  Wk  startup_stm32f10x_cl.o [1]
RamSource               0x20000098     0x4  Data  Gb  tftpserver.o [1]
Region$$Table$$Base     0x08007394           --   Gb  - Linker created -
Region$$Table$$Limit    0x080073b8           --   Gb  - Linker created -
Rx_Buff                 0x20008fec  0x17c0  Data  Gb  ethernetif.o [1]
SPI1_IRQHandler         0x080074a7          Code  Wk  startup_stm32f10x_cl.o [1]
SPI2_IRQHandler         0x080074ab          Code  Wk  startup_stm32f10x_cl.o [1]
SPI3_IRQHandler         0x080074cb          Code  Wk  startup_stm32f10x_cl.o [1]
SVC_Handler             0x08007237     0x2  Code  Gb  stm32f10x_it.o [1]
Set_MAC_Address         0x08007009    0x22  Code  Gb  ethernetif.o [1]
SysTick_Handler         0x0800723d     0x4  Code  Gb  stm32f10x_it.o [1]
SystemInit              0x08006019    0xfa  Code  Gb  system_stm32f10x.o [1]
System_Setup            0x08005943    0x6e  Code  Gb  stm32f107.o [1]
TAMPER_IRQHandler       0x08007423          Code  Wk  startup_stm32f10x_cl.o [1]
TFTP_IAP                0x08006e39    0x96  Code  Gb  main.o [1]
TIM1_BRK_IRQHandler     0x0800747b          Code  Wk  startup_stm32f10x_cl.o [1]
TIM1_CC_IRQHandler      0x08007487          Code  Wk  startup_stm32f10x_cl.o [1]
TIM1_TRG_COM_IRQHandler
                        0x08007483          Code  Wk  startup_stm32f10x_cl.o [1]
TIM1_UP_IRQHandler      0x0800747f          Code  Wk  startup_stm32f10x_cl.o [1]
TIM2_IRQHandler         0x08007241    0x1a  Code  Gb  stm32f10x_it.o [1]
TIM3_IRQHandler         0x0800748f          Code  Wk  startup_stm32f10x_cl.o [1]
TIM4_IRQHandler         0x08007493          Code  Wk  startup_stm32f10x_cl.o [1]
TIM5_IRQHandler         0x080074c7          Code  Wk  startup_stm32f10x_cl.o [1]
TIM6_IRQHandler         0x080074d7          Code  Wk  startup_stm32f10x_cl.o [1]
TIM7_IRQHandler         0x080074db          Code  Wk  startup_stm32f10x_cl.o [1]
TIM_ClearITPendingBit   0x08007363          Code  Gb  stm32f10x_tim.o [1]
TIM_GetITStatus         0x0800734d    0x16  Code  Gb  stm32f10x_tim.o [1]
Time_Update             0x08006ecf    0x28  Code  Gb  main.o [1]
Tx_Buff                 0x2000a7ac   0xbe0  Data  Gb  ethernetif.o [1]
UART4_IRQHandler        0x0800725b    0x84  Code  Gb  stm32f10x_it.o [1]
UART5_IRQHandler        0x080074d3          Code  Wk  startup_stm32f10x_cl.o [1]
UDPpcb                  0x2000c498     0x4  Data  Gb  tftpserver.o [1]
USART1_IRQHandler       0x080074af          Code  Wk  startup_stm32f10x_cl.o [1]
USART2_IRQHandler       0x080074b3          Code  Wk  startup_stm32f10x_cl.o [1]
USART3_IRQHandler       0x080074b7          Code  Wk  startup_stm32f10x_cl.o [1]
USART_ClearFlag         0x08005485     0x2  Code  Gb  stm32f10x_usart.o [1]
USART_ClearITPendingBit
                        0x080054c1     0xa  Code  Gb  stm32f10x_usart.o [1]
USART_Cmd               0x08005431    0x14  Code  Gb  stm32f10x_usart.o [1]
USART_Configuration     0x0800586d    0x4e  Code  Gb  stm32f107.o [1]
USART_DMACmd            0x08005475    0x10  Code  Gb  stm32f10x_usart.o [1]
USART_GetITStatus       0x08005487    0x3a  Code  Gb  stm32f10x_usart.o [1]
USART_ITConfig          0x08005445    0x30  Code  Gb  stm32f10x_usart.o [1]
USART_Init              0x080053b5    0x78  Code  Gb  stm32f10x_usart.o [1]
UsageFault_Handler      0x08007235     0x2  Code  Gb  stm32f10x_it.o [1]
WWDG_IRQHandler         0x0800741b          Code  Wk  startup_stm32f10x_cl.o [1]
_EncodingSb_Mbtowc      0x08003131    0x30  Code  Gb  xencoding_sb.o [3]
_EncodingSb_Wctomb      0x08003115    0x1c  Code  Gb  xencoding_sb.o [3]
_GenldDefault           0x08002371   0x258  Code  Lc  xprintffull.o [3]
_IsdstStr               0x2000c32c     0x4  Data  Gb  setlocale.o [3]
_LdtobDefault           0x08001f59   0x3fe  Code  Lc  xprintffull.o [3]
_LitobDefault           0x08001e3b   0x11e  Code  Lc  xprintffull.o [3]
_LocaleEncoding         0x08003101     0xe  Code  Gb  setlocale.o [3]
_LocaleReturnString     0x2000c34c    0x50  Data  Lc  setlocale.o [3]
_Locale_Profile         0x2000c330    0x1c  Data  Gb  setlocale.o [3]
_Locale_lconv           0x20000000    0x50  Data  Gb  localeconv.o [3]
_Mbtowc                 0x0800261f    0x20  Code  Gb  xmbtowc.o [3]
_Printf                 0x080015a9   0x5d0  Code  Gb  xprintffull.o [3]
_PutcharsDefault        0x080025c9    0x32  Code  Lc  xprintffull.o [3]
_PutstrDefault          0x08001b79   0x2c2  Code  Lc  xprintffull.o [3]
_SProut                 0x08002677     0xa  Code  Gb  xsprout.o [3]
_TzoneStr               0x2000c328     0x4  Data  Gb  setlocale.o [3]
_Wctomb                 0x08002719    0x1a  Code  Gb  xwctomb.o [3]
__aeabi_cdcmple         0x08002919          Code  Gb  DblCmpLe.o [4]
__aeabi_cdrcmple        0x08002949          Code  Gb  DblCmpGe.o [4]
__aeabi_d2iz            0x08002a91          Code  Gb  DblToI32.o [4]
__aeabi_d2uiz           0x08002abd          Code  Gb  DblToI32.o [4]
__aeabi_dadd            0x08003175          Code  Gb  DblAdd.o [4]
__aeabi_ddiv            0x08002e3d          Code  Gb  DblDiv.o [4]
__aeabi_dmul            0x08002c99          Code  Gb  DblMul.o [4]
__aeabi_dsub            0x08002b19          Code  Gb  DblSub.o [4]
__aeabi_i2d             0x08002ae9          Code  Gb  I32ToDbl.o [4]
__aeabi_ldiv0           0x08003171          Code  Gb  I64DivZer.o [5]
__aeabi_ldivmod         0x080027a5          Code  Gb  I64DivMod.o [5]
__aeabi_memclr4         0x08004be5          Code  Gb  ABImemclr4.o [5]
__aeabi_memcpy          0x08002735          Code  Gb  ABImemcpy.o [5]
__aeabi_memcpy4         0x0800274f          Code  Gb  ABImemcpy.o [5]
__aeabi_memcpy8         0x0800274f          Code  Gb  ABImemcpy.o [5]
__aeabi_memset4         0x08004c85          Code  Gb  ABImemset48.o [5]
__aeabi_memset8         0x08004c85          Code  Gb  ABImemset48.o [5]
__aeabi_ui2d            0x08002afd          Code  Gb  I32ToDbl.o [4]
__aeabi_uldivmod        0x080027b9          Code  Gb  I64DivMod.o [5]
__cexit_clearlocks      0x080073df          Code  Gb  cexit.o [5]
__cmain                 0x080073b9          Code  Gb  cmain.o [5]
__cstart_clearlocks     0x08007511          Code  Gb  cstart_clearlocks.o [5]
__data_GetMemChunk      0x08001475    0x28  Code  Gb  xgetmemchunk.o [3]
__exit                  0x08001551    0x14  Code  Gb  exit.o [6]
__iar_Dnorm             0x080028d5    0x44  Code  Gb  xdnorm.o [4]
__iar_Dscale            0x08002979   0x118  Code  Gb  xdscale.o [4]
__iar_Locale_lconv_init
                        0x08003085    0x3a  Code  Gb  localeconv.o [3]
__iar_Locksyslock       0x080014df    0x56  Code  Gb  xsyslock.o [3]
__iar_Mbcurmax          0x0800270f     0xa  Code  Gb  xmbcurmax.o [3]
__iar_Memchr            0x08002681          Code  Gb  memchr.o [5]
__iar_Memset4_word      0x08004c8d          Code  Gb  ABImemset48.o [5]
__iar_Memset8_word      0x08004c8d          Code  Gb  ABImemset48.o [5]
__iar_Strchr            0x08002661          Code  Gb  strchr.o [5]
__iar_Unlocksyslock     0x08001535    0x16  Code  Gb  xsyslock.o [3]
__iar_clearlocks        0x0800149d    0x42  Code  Gb  xsyslock.o [3]
__iar_close_ttio        0x08001571    0x2e  Code  Gb  iarttio.o [6]
__iar_copy_init3        0x08001447    0x2e  Code  Gb  copy_init3.o [5]
__iar_d2uiz             0x08002ac7          Code  Gb  DblToI32.o [4]
__iar_dadd              0x08003187          Code  Gb  DblAdd.o [4]
__iar_data_init3        0x08007369    0x2c  Code  Gb  data_init3.o [5]
__iar_dlfree            0x08000fb7   0x47e  Code  Gb  dlmalloc.o [3]
__iar_dlib_perthread_access
                        0x0800325b     0x2  Code  Gb  xtls.o [3]
__iar_dlmalloc          0x08000d67   0x250  Code  Gb  dlmalloc.o [3]
__iar_dsub              0x08002b2b          Code  Gb  DblSub.o [4]
__iar_dsubStart         0x08002b3d          Code  Gb  DblSub.o [4]
__iar_file_Mtxdst       0x08001567     0x2  Code  Gb  xmtx2.o [3]
__iar_file_Mtxinit      0x08001565     0x2  Code  Gb  xmtx2.o [3]
__iar_lookup_ttioh      0x080015a1     0x8  Code  Gb  XShttio.o [3]
__iar_program_start     0x080073eb          Code  Gb  cstartup_M.o [5]
__iar_system_Mtxdst     0x0800156b     0x2  Code  Gb  xmtx.o [3]
__iar_system_Mtxinit    0x08001569     0x2  Code  Gb  xmtx.o [3]
__iar_system_Mtxlock    0x0800156d     0x2  Code  Gb  xmtx.o [3]
__iar_system_Mtxunlock  0x0800156f     0x2  Code  Gb  xmtx.o [3]
__iar_ttio_handles      0x200000a8     0x8  Data  Lc  XShttio.o [3]
__iar_ui2d              0x08002aff          Code  Gb  I32ToDbl.o [4]
__iar_zero_init3        0x0800263f    0x22  Code  Gb  zero_init3.o [5]
__low_level_init        0x080073cf     0x4  Code  Gb  low_level_init.o [3]
__set_MSP               0x08006f45     0x8  Code  Gb  core_cm3.o [1]
__vector_table          0x08000000          Data  Gb  startup_stm32f10x_cl.o [1]
_call_main              0x080073c5          Code  Gb  cmain.o [5]
_exit                   0x080073dd          Code  Gb  cexit.o [5]
_gm_                    0x2000be1c   0x1d4  Data  Lc  dlmalloc.o [3]
_main                   0x080073cb          Code  Gb  cmain.o [5]
abort                   0x0800143d     0xa  Code  Gb  abort.o [3]
add_segment             0x080004c7   0x1f2  Code  Lc  dlmalloc.o [3]
app_flag                0x2000c48a     0x2  Data  Gb  main.o [1]
arp_table               0x2000c0d0    0xc8  Data  Lc  etharp.o [1]
buf                     0x2000b38c   0x5e0  Data  Lc  ip_frag.o [1]
creat_udp_connect_process
                        0x08005691    0x28  Code  Gb  udpclient.o [1]
cur_tran_station        0x2000c435     0x1  Data  Gb  uart.o [1]
current_header          0x2000c464     0x4  Data  Lc  ip.o [1]
current_netif           0x2000c460     0x4  Data  Lc  ip.o [1]
div                     0x080030f1     0xe  Code  Gb  div.o [3]
enQueue                 0x08005ebf    0x22  Code  Gb  fun.o [1]
erase_user_app_flash    0x0800509b    0x36  Code  Gb  uart.o [1]
etharp_arp_input        0x080034cf    0xe0  Code  Gb  etharp.o [1]
etharp_cached_entry     0x2000c4a8     0x1  Data  Lc  etharp.o [1]
etharp_ip_input         0x080034ab    0x24  Code  Gb  etharp.o [1]
etharp_output           0x080035b7    0xa8  Code  Gb  etharp.o [1]
etharp_query            0x08003671    0xf2  Code  Gb  etharp.o [1]
etharp_raw              0x08003777    0xa8  Code  Lc  etharp.o [1]
etharp_request          0x0800381f    0x28  Code  Gb  etharp.o [1]
etharp_send_ip          0x080033f3    0x2c  Code  Lc  etharp.o [1]
etharp_tmr              0x0800327b    0x44  Code  Gb  etharp.o [1]
ethbroadcast            0x08003898     0x8  Data  Gb  etharp.o [1]
ethernet_input          0x08003847    0x52  Code  Gb  etharp.o [1]
ethernetif_init         0x080070cb    0xbe  Code  Gb  ethernetif.o [1]
ethernetif_input        0x080070a5    0x26  Code  Gb  ethernetif.o [1]
ethzero                 0x080038a0     0x8  Data  Gb  etharp.o [1]
exit                    0x080073d3     0x8  Code  Gb  exit.o [3]
file_mtx                0x2000c3a0    0x20  Data  Lc  xsyslock.o [3]
file_tot_bytes          0x2000c418     0x4  Data  Gb  fun.o [1]
find_entry              0x080032bf   0x134  Code  Lc  etharp.o [1]
free_etharp_q           0x0800325d    0x1e  Code  Lc  etharp.o [1]
g_download_status       0x2000c414     0x1  Data  Gb  fun.o [1]
get_ip_para_process     0x08005813    0x22  Code  Gb  udpclient.o [1]
htonl                   0x08003d0d    0x18  Code  Gb  inet.o [1]
htons                   0x08003d01     0xa  Code  Gb  inet.o [1]
icmp_dest_unreach       0x08004b6d     0x6  Code  Gb  icmp.o [1]
icmp_input              0x08004a57   0x10e  Code  Gb  icmp.o [1]
icmp_send_response      0x08004b77    0x60  Code  Lc  icmp.o [1]
icmp_time_exceeded      0x08004b73     0x4  Code  Gb  icmp.o [1]
inet_chksum             0x08004c31     0xc  Code  Gb  inet_chksum.o [1]
inet_chksum_pbuf        0x08004c3d    0x48  Code  Gb  inet_chksum.o [1]
initQueue               0x08005eb1     0xe  Code  Gb  fun.o [1]
init_mparams            0x08000151    0x34  Code  Lc  dlmalloc.o [3]
init_top                0x08000185    0x3c  Code  Lc  dlmalloc.o [3]
ip_addr_any             0x08003cfc     0x4  Data  Gb  ip_addr.o [1]
ip_addr_isbroadcast     0x08003cc1    0x3a  Code  Gb  ip_addr.o [1]
ip_frag                 0x08004597   0x124  Code  Gb  ip_frag.o [1]
ip_input                0x08003d6b   0x142  Code  Gb  ip.o [1]
ip_output               0x08003f7d    0x34  Code  Gb  ip.o [1]
ip_output_if            0x08003ead    0xbe  Code  Gb  ip.o [1]
ip_reass                0x08004403   0x188  Code  Gb  ip_frag.o [1]
ip_reass_chain_frag_into_datagram_and_validate
                        0x08004329    0xda  Code  Lc  ip_frag.o [1]
ip_reass_dequeue_datagram
                        0x0800430d    0x1c  Code  Lc  ip_frag.o [1]
ip_reass_free_complete_datagram
                        0x08004239    0x6c  Code  Lc  ip_frag.o [1]
ip_reass_pbufcount      0x2000c468     0x2  Data  Lc  ip_frag.o [1]
ip_reass_remove_oldest_datagram
                        0x080042a5    0x68  Code  Lc  ip_frag.o [1]
ip_route                0x08003d29    0x42  Code  Gb  ip.o [1]
lfree                   0x200000b8     0x4  Data  Lc  mem.o [1]
local_station           0x2000c488     0x1  Data  Gb  main.o [1]
localeconv              0x080030bf    0x16  Code  Gb  localeconv.o [3]
low_level_input         0x08007057    0x4e  Code  Lc  ethernetif.o [1]
low_level_output        0x0800702b    0x2c  Code  Lc  ethernetif.o [1]
lwip_standard_chksum    0x08004beb    0x46  Code  Lc  inet_chksum.o [1]
main                    0x08006def    0x4a  Code  Gb  main.o [1]
mem_free                0x08003fdf    0x68  Code  Gb  mem.o [1]
mem_init                0x08003fb1    0x2e  Code  Gb  mem.o [1]
mem_malloc              0x080040e9    0x9a  Code  Gb  mem.o [1]
mem_realloc             0x08004047    0xa2  Code  Gb  mem.o [1]
memchr                  0x08002681          Code  Gb  memchr.o [5]
memp_free               0x08003c95    0x10  Code  Gb  memp.o [1]
memp_init               0x08003c35    0x44  Code  Gb  memp.o [1]
memp_malloc             0x08003c79    0x1c  Code  Gb  memp.o [1]
memp_memory             0x200050e8  0x3e9c  Data  Lc  memp.o [1]
memp_num                0x08003cb4     0xc  Data  Lc  memp.o [1]
memp_sizes              0x08003ca8     0xc  Data  Lc  memp.o [1]
memp_tab                0x200050d0    0x18  Data  Lc  memp.o [1]
mparams                 0x2000c41c    0x18  Data  Lc  dlmalloc.o [3]
msgQueueBuff            0x2000c198    0xc8  Data  Gb  fun.o [1]
msgSendQueue            0x2000c448     0xc  Data  Gb  fun.o [1]
mtx                     0x2000c3c0    0x14  Data  Lc  xsyslock.o [3]
netif                   0x2000c3d4    0x30  Data  Gb  netconf.o [1]
netif_add               0x08004189    0x42  Code  Gb  netif.o [1]
netif_default           0x2000c45c     0x4  Data  Gb  netif.o [1]
netif_is_up             0x0800422d     0xa  Code  Gb  netif.o [1]
netif_list              0x2000c458     0x4  Data  Gb  netif.o [1]
netif_set_addr          0x080041cb    0x1e  Code  Gb  netif.o [1]
netif_set_default       0x08004201     0x6  Code  Gb  netif.o [1]
netif_set_gw            0x080041f1     0x8  Code  Gb  netif.o [1]
netif_set_ipaddr        0x080041e9     0x8  Code  Gb  netif.o [1]
netif_set_netmask       0x080041f9     0x8  Code  Gb  netif.o [1]
netif_set_up            0x0800420d    0x20  Code  Gb  netif.o [1]
ntohl                   0x08003d25     0x2  Code  Gb  inet.o [1]
ntohs                   0x08003d0b     0x2  Code  Gb  inet.o [1]
outQueue                0x08005ee1    0x24  Code  Gb  fun.o [1]
pbuf_alloc              0x080038a9   0x11a  Code  Gb  pbuf.o [1]
pbuf_cat                0x08003acb    0x24  Code  Gb  pbuf.o [1]
pbuf_chain              0x08003aef    0x10  Code  Gb  pbuf.o [1]
pbuf_clen               0x08003ab1    0x10  Code  Gb  pbuf.o [1]
pbuf_copy               0x08003aff    0x8a  Code  Gb  pbuf.o [1]
pbuf_copy_partial       0x08003b89    0x60  Code  Gb  pbuf.o [1]
pbuf_free               0x08003a71    0x40  Code  Gb  pbuf.o [1]
pbuf_header             0x08003a11    0x60  Code  Gb  pbuf.o [1]
pbuf_realloc            0x080039c3    0x4e  Code  Gb  pbuf.o [1]
pbuf_ref                0x08003ac1     0xa  Code  Gb  pbuf.o [1]
pbuf_take               0x08003be9    0x4a  Code  Gb  pbuf.o [1]
pk_cur_num              0x2000c440     0x2  Data  Gb  uart.o [1]
pk_len                  0x2000c442     0x2  Data  Gb  uart.o [1]
pk_tot_num              0x2000c43e     0x2  Data  Gb  uart.o [1]
prepend_alloc           0x080001c1   0x306  Code  Lc  dlmalloc.o [3]
print_msg_buff          0x2000c260    0xc8  Data  Gb  fun.o [1]
print_msg_len           0x2000c4a4     0x2  Data  Gb  fun.o [1]
process_tftp_request    0x08006a73    0xda  Code  Gb  tftpserver.o [1]
program_user_app_flash  0x080050d1    0x62  Code  Gb  uart.o [1]
ram                     0x200000b0     0x4  Data  Lc  mem.o [1]
ram_end                 0x200000b4     0x4  Data  Lc  mem.o [1]
ram_heap                0x200000bc  0x5014  Data  Lc  mem.o [1]
raw_input               0x080046c5    0x5c  Code  Gb  raw.o [1]
raw_pcbs                0x2000c490     0x4  Data  Lc  raw.o [1]
reassdatagrams          0x2000c46c     0x4  Data  Lc  ip_frag.o [1]
recv_callback_tftp      0x08006b4d    0x1a  Code  Gb  tftpserver.o [1]
recv_message_from_sever
                        0x08005f8f    0x1a  Code  Gb  fun.o [1]
recv_msg_check          0x08005f11    0x42  Code  Gb  fun.o [1]
recv_msg_process        0x08005f53    0x3c  Code  Gb  fun.o [1]
reply_recv_msg          0x08005fa9    0x2e  Code  Gb  fun.o [1]
rrq_recv_callback       0x0800687b    0x52  Code  Gb  tftpserver.o [1]
sDLoad_Para_Data        0x2000c404    0x10  Data  Gb  fun.o [1]
scan_local_station      0x08006cf9    0x98  Code  Gb  main.o [1]
sec_flag                0x2000009e     0x2  Data  Gb  main.o [1]
sec_process             0x08006d97    0x32  Code  Gb  main.o [1]
sec_reg                 0x2000009c     0x2  Data  Gb  main.o [1]
send_message_to_sever   0x08005fd7    0x30  Code  Gb  fun.o [1]
slave_recv_pk_num       0x2000c446     0x2  Data  Gb  uart.o [1]
slave_reply_cmd         0x2000c444     0x2  Data  Gb  uart.o [1]
sprintf                 0x0800565d    0x34  Code  Gb  sprintf.o [3]
strchr                  0x08002661          Code  Gb  strchr.o [5]
strcpy                  0x08006cb5          Code  Gb  strcpy.o [5]
strlen                  0x080026d9          Code  Gb  strlen.o [5]
sum_check               0x08004ceb    0x1a  Code  Gb  uart.o [1]
sys_alloc               0x080006b9   0x140  Code  Lc  dlmalloc.o [3]
syslock_o               0x2000c39c     0x4  Data  Lc  xsyslock.o [3]
tcp_client_list         0x2000bff0    0xe0  Data  Gb  udpclient.o [1]
tftp_cleanup_rd         0x08006835     0x4  Code  Gb  tftpserver.o [1]
tftp_cleanup_wr         0x08006839     0x2  Code  Gb  tftpserver.o [1]
tftp_construct_error_message
                        0x08006773    0x2e  Code  Gb  tftpserver.o [1]
tftp_decode_op          0x08006c61     0x4  Code  Gb  tftputils.o [1]
tftp_errorcode_string   0x20000050    0x24  Data  Gb  tftpserver.o [1]
tftp_extract_block      0x08006c65     0x6  Code  Gb  tftputils.o [1]
tftp_extract_filename   0x08006c6b     0x6  Code  Gb  tftputils.o [1]
tftp_is_correct_ack     0x08006c9b    0x1a  Code  Gb  tftputils.o [1]
tftp_process_read       0x080068cd    0x46  Code  Gb  tftpserver.o [1]
tftp_process_write      0x08006a09    0x44  Code  Gb  tftpserver.o [1]
tftp_send_ack_packet    0x08006805    0x24  Code  Gb  tftpserver.o [1]
tftp_send_data_packet   0x080067bf    0x46  Code  Gb  tftpserver.o [1]
tftp_send_error_message
                        0x080067a1    0x1e  Code  Gb  tftpserver.o [1]
tftp_send_message       0x0800672d    0x46  Code  Gb  tftpserver.o [1]
tftp_send_next_block    0x0800685f    0x1c  Code  Gb  tftpserver.o [1]
tftp_set_block          0x08006c87     0xe  Code  Gb  tftputils.o [1]
tftp_set_data_message   0x08006c95     0x6  Code  Gb  tftputils.o [1]
tftp_set_errorcode      0x08006c79     0x8  Code  Gb  tftputils.o [1]
tftp_set_errormsg       0x08006c81     0x6  Code  Gb  tftputils.o [1]
tftp_set_opcode         0x08006c71     0x8  Code  Gb  tftputils.o [1]
tftpd_init              0x08006b67    0x22  Code  Gb  tftpserver.o [1]
timingdelay             0x200000a4     0x4  Data  Gb  main.o [1]
tmalloc_large           0x08000809   0x374  Code  Lc  dlmalloc.o [3]
tmalloc_small           0x08000b7d   0x1e4  Code  Lc  dlmalloc.o [3]
uart4_commu_state       0x2000c434     0x1  Data  Gb  uart.o [1]
uart4_recv_buff         0x2000bbc4   0x258  Data  Gb  uart.o [1]
uart4_recv_count        0x2000c438     0x2  Data  Gb  uart.o [1]
uart4_recv_timeout      0x2000c43c     0x2  Data  Gb  uart.o [1]
uart4_send              0x08004d05    0x48  Code  Gb  uart.o [1]
uart4_send_buff         0x2000b96c   0x258  Data  Gb  uart.o [1]
uart4_send_count        0x2000c436     0x2  Data  Gb  uart.o [1]
uart4_send_retry        0x2000c43a     0x2  Data  Gb  uart.o [1]
uart_recv_frame_check   0x08004e99    0x56  Code  Gb  uart.o [1]
uart_recv_process       0x08004eef    0xe4  Code  Gb  uart.o [1]
uart_recv_timeout       0x08004cbd    0x2e  Code  Gb  uart.o [1]
uart_reply_boot_cmd     0x08005039     0xa  Code  Gb  uart.o [1]
uart_reply_erase_flash_cmd
                        0x08005043     0x8  Code  Gb  uart.o [1]
uart_reply_process      0x08005133    0x4e  Code  Gb  uart.o [1]
uart_reply_tran_data_cmd
                        0x08005073    0x28  Code  Gb  uart.o [1]
uart_send_boot_cmd      0x08004d4d    0x1e  Code  Gb  uart.o [1]
uart_send_erase_flash_cmd
                        0x08004d73    0x1c  Code  Gb  uart.o [1]
uart_send_one_pack_data
                        0x08004dd5    0xa6  Code  Gb  uart.o [1]
uart_send_tran_data_cmd
                        0x08004e7b    0x1e  Code  Gb  uart.o [1]
uart_transmit_process   0x08004fdd    0x5c  Code  Gb  uart.o [1]
udp_bind                0x08004955    0x56  Code  Gb  udp.o [1]
udp_client_process      0x080057c9    0x4a  Code  Gb  udpclient.o [1]
udp_connect             0x080049ab    0x46  Code  Gb  udp.o [1]
udp_disconnect          0x080049f1    0x14  Code  Gb  udp.o [1]
udp_echoclient_connect  0x080056b9    0x62  Code  Gb  udpclient.o [1]
udp_input               0x08004725   0x14a  Code  Gb  udp.o [1]
udp_new                 0x08004a3d    0x1a  Code  Gb  udp.o [1]
udp_pcbs                0x2000c49c     0x4  Data  Gb  udp.o [1]
udp_receive_callback    0x0800571b    0x70  Code  Gb  udpclient.o [1]
udp_recv                0x08004a05     0x6  Code  Gb  udp.o [1]
udp_remove              0x08004a0b    0x28  Code  Gb  udp.o [1]
udp_send                0x0800486f     0x4  Code  Gb  udp.o [1]
udp_send_message        0x08005835    0x2a  Code  Gb  udpclient.o [1]
udp_send_process        0x0800578b    0x34  Code  Gb  udpclient.o [1]
udp_sendto              0x08004873    0x2a  Code  Gb  udp.o [1]
udp_sendto_if           0x0800489d    0xb8  Code  Gb  udp.o [1]
update_arp_entry        0x0800341f    0x84  Code  Lc  etharp.o [1]
wrq_recv_callback       0x08006913    0xf6  Code  Gb  tftpserver.o [1]


[1] = D:\Express\EXP_CAR_PROJECT\EXP_CAR_ETH_BOOT_PROJECT_V1_2_T170101\Project\EWARMv5\STM3210C-EVAL\Obj
[2] = command line
[3] = dl7M_tlf.a
[4] = m7M_tl.a
[5] = rt7M_tl.a
[6] = shb_l.a

  29 932 bytes of readonly  code memory
     212 bytes of readonly  data memory
  54 697 bytes of readwrite data memory

Errors: none
Warnings: none
